
slice.elf:     file format elf32-littlenios2
slice.elf
architecture: nios2:r1, flags 0x00000112:
EXEC_P, HAS_SYMS, D_PAGED
start address 0x00000244

Program Header:
    LOAD off    0x00001000 vaddr 0x00000000 paddr 0x00000000 align 2**12
         filesz 0x00000020 memsz 0x00000020 flags r-x
    LOAD off    0x00001020 vaddr 0x00000020 paddr 0x00000020 align 2**12
         filesz 0x0000a1dc memsz 0x0000a1dc flags r-x
    LOAD off    0x0000b1fc vaddr 0x0000a1fc paddr 0x0000bcec align 2**12
         filesz 0x00001af0 memsz 0x00001af0 flags rw-
    LOAD off    0x0000d7dc vaddr 0x0000d7dc paddr 0x0000d7dc align 2**12
         filesz 0x00000000 memsz 0x00000160 flags rw-

Sections:
Idx Name          Size      VMA       LMA       File off  Algn
  0 .entry        00000020  00000000  00000000  00001000  2**5
                  CONTENTS, ALLOC, LOAD, READONLY, CODE
  1 .exceptions   00000224  00000020  00000020  00001020  2**2
                  CONTENTS, ALLOC, LOAD, READONLY, CODE
  2 .text         00009ca8  00000244  00000244  00001244  2**2
                  CONTENTS, ALLOC, LOAD, READONLY, CODE
  3 .rodata       00000310  00009eec  00009eec  0000aeec  2**2
                  CONTENTS, ALLOC, LOAD, READONLY, DATA
  4 .rwdata       00001af0  0000a1fc  0000bcec  0000b1fc  2**2
                  CONTENTS, ALLOC, LOAD, DATA, SMALL_DATA
  5 .bss          00000160  0000d7dc  0000d7dc  0000d7dc  2**2
                  ALLOC, SMALL_DATA
  6 .onchip_memory2_0 00000000  0000d93c  0000d93c  0000ccec  2**0
                  CONTENTS
  7 .comment      00000023  00000000  00000000  0000ccec  2**0
                  CONTENTS, READONLY
  8 .debug_aranges 00000e68  00000000  00000000  0000cd10  2**3
                  CONTENTS, READONLY, DEBUGGING
  9 .debug_info   0002356b  00000000  00000000  0000db78  2**0
                  CONTENTS, READONLY, DEBUGGING
 10 .debug_abbrev 00008fc0  00000000  00000000  000310e3  2**0
                  CONTENTS, READONLY, DEBUGGING
 11 .debug_line   0000a0c7  00000000  00000000  0003a0a3  2**0
                  CONTENTS, READONLY, DEBUGGING
 12 .debug_frame  00002018  00000000  00000000  0004416c  2**2
                  CONTENTS, READONLY, DEBUGGING
 13 .debug_str    00003452  00000000  00000000  00046184  2**0
                  CONTENTS, READONLY, DEBUGGING
 14 .debug_loc    0000a93c  00000000  00000000  000495d6  2**0
                  CONTENTS, READONLY, DEBUGGING
 15 .debug_alt_sim_info 00000030  00000000  00000000  00053f14  2**2
                  CONTENTS, READONLY, DEBUGGING
 16 .debug_ranges 00000dc0  00000000  00000000  00053f48  2**3
                  CONTENTS, READONLY, DEBUGGING
 17 .thread_model 00000003  00000000  00000000  00057d66  2**0
                  CONTENTS, READONLY
 18 .cpu          0000000c  00000000  00000000  00057d69  2**0
                  CONTENTS, READONLY
 19 .qsys         00000001  00000000  00000000  00057d75  2**0
                  CONTENTS, READONLY
 20 .simulation_enabled 00000001  00000000  00000000  00057d76  2**0
                  CONTENTS, READONLY
 21 .stderr_dev   00000009  00000000  00000000  00057d77  2**0
                  CONTENTS, READONLY
 22 .stdin_dev    00000009  00000000  00000000  00057d80  2**0
                  CONTENTS, READONLY
 23 .stdout_dev   00000009  00000000  00000000  00057d89  2**0
                  CONTENTS, READONLY
 24 .sopc_system_name 0000000a  00000000  00000000  00057d92  2**0
                  CONTENTS, READONLY
 25 .quartus_project_dir 00000021  00000000  00000000  00057d9c  2**0
                  CONTENTS, READONLY
 26 .jdi          0000510c  00000000  00000000  00057dbd  2**0
                  CONTENTS, READONLY
 27 .sopcinfo     002be13d  00000000  00000000  0005cec9  2**0
                  CONTENTS, READONLY
SYMBOL TABLE:
00000000 l    d  .entry	00000000 .entry
00000020 l    d  .exceptions	00000000 .exceptions
00000244 l    d  .text	00000000 .text
00009eec l    d  .rodata	00000000 .rodata
0000a1fc l    d  .rwdata	00000000 .rwdata
0000d7dc l    d  .bss	00000000 .bss
0000d93c l    d  .onchip_memory2_0	00000000 .onchip_memory2_0
00000000 l    d  .comment	00000000 .comment
00000000 l    d  .debug_aranges	00000000 .debug_aranges
00000000 l    d  .debug_info	00000000 .debug_info
00000000 l    d  .debug_abbrev	00000000 .debug_abbrev
00000000 l    d  .debug_line	00000000 .debug_line
00000000 l    d  .debug_frame	00000000 .debug_frame
00000000 l    d  .debug_str	00000000 .debug_str
00000000 l    d  .debug_loc	00000000 .debug_loc
00000000 l    d  .debug_alt_sim_info	00000000 .debug_alt_sim_info
00000000 l    d  .debug_ranges	00000000 .debug_ranges
00000000 l    df *ABS*	00000000 ../slice_bsp//obj/HAL/src/crt0.o
0000028c l       .text	00000000 alt_after_alt_main
00000000 l    df *ABS*	00000000 alt_irq_handler.c
00000000 l    df *ABS*	00000000 alt_instruction_exception_entry.c
00000000 l    df *ABS*	00000000 addr_mapping.c
00000000 l    df *ABS*	00000000 cuckoo_hash.c
0000049c l     F .text	00000098 compute_hash
00000610 l     F .text	00000044 bin_at
00000654 l     F .text	0000019c lookup
000008bc l     F .text	000000c8 grow_table
00000984 l     F .text	00000170 grow_bin_size
00000af4 l     F .text	000001d8 undo_insert
0000a00c l     O .rodata	0000000c __func__.2491
00000ccc l     F .text	00000334 insert
0000a018 l     O .rodata	00000013 __func__.2530
00000000 l    df *ABS*	00000000 lookup3.c
00000000 l    df *ABS*	00000000 main.c
00000000 l    df *ABS*	00000000 assert.c
00000000 l    df *ABS*	00000000 calloc.c
00000000 l    df *ABS*	00000000 mallocr.c
00000000 l    df *ABS*	00000000 exit.c
00000000 l    df *ABS*	00000000 fiprintf.c
00000000 l    df *ABS*	00000000 fwrite.c
00000000 l    df *ABS*	00000000 impure.c
0000a1fc l     O .rwdata	00000424 impure_data
00000000 l    df *ABS*	00000000 malloc.c
00000000 l    df *ABS*	00000000 mallocr.c
00000000 l    df *ABS*	00000000 memcmp.c
00000000 l    df *ABS*	00000000 memcpy.c
00000000 l    df *ABS*	00000000 memmove.c
00000000 l    df *ABS*	00000000 memset.c
00000000 l    df *ABS*	00000000 puts.c
00000000 l    df *ABS*	00000000 realloc.c
00000000 l    df *ABS*	00000000 mallocr.c
00000000 l    df *ABS*	00000000 sbrkr.c
00000000 l    df *ABS*	00000000 strlen.c
00000000 l    df *ABS*	00000000 vfiprintfr_1.c
00000000 l    df *ABS*	00000000 __call_atexit.c
00000000 l    df *ABS*	00000000 abort.c
00000000 l    df *ABS*	00000000 findfp.c
000031a8 l     F .text	00000008 __fp_unlock
000031bc l     F .text	0000019c __sinit.part.1
00003358 l     F .text	00000008 __fp_lock
00000000 l    df *ABS*	00000000 mallocr.c
00000000 l    df *ABS*	00000000 fvwrite.c
00000000 l    df *ABS*	00000000 fwalk.c
00000000 l    df *ABS*	00000000 int_errno.c
00000000 l    df *ABS*	00000000 memchr.c
00000000 l    df *ABS*	00000000 signal.c
00000000 l    df *ABS*	00000000 signalr.c
00000000 l    df *ABS*	00000000 stdio.c
00000000 l    df *ABS*	00000000 vfprintf.c
000044e4 l     F .text	000000fc __sprint_r.part.0
0000a0b3 l     O .rodata	00000010 blanks.4348
0000a0a3 l     O .rodata	00000010 zeroes.4349
00005a70 l     F .text	000000bc __sbprintf
00000000 l    df *ABS*	00000000 writer.c
00000000 l    df *ABS*	00000000 wsetup.c
00000000 l    df *ABS*	00000000 closer.c
00000000 l    df *ABS*	00000000 fclose.c
00000000 l    df *ABS*	00000000 fflush.c
00000000 l    df *ABS*	00000000 fputwc.c
00000000 l    df *ABS*	00000000 locale.c
0000aa48 l     O .rwdata	00000020 lc_ctype_charset
0000aa28 l     O .rwdata	00000020 lc_message_charset
0000aa68 l     O .rwdata	00000038 lconv
00000000 l    df *ABS*	00000000 lseekr.c
00000000 l    df *ABS*	00000000 makebuf.c
00000000 l    df *ABS*	00000000 readr.c
00000000 l    df *ABS*	00000000 strcmp.c
00000000 l    df *ABS*	00000000 wbuf.c
00000000 l    df *ABS*	00000000 wcrtomb.c
00000000 l    df *ABS*	00000000 wctomb_r.c
00000000 l    df *ABS*	00000000 fstatr.c
00000000 l    df *ABS*	00000000 isattyr.c
00000000 l    df *ABS*	00000000 libgcc2.c
00000000 l    df *ABS*	00000000 libgcc2.c
00000000 l    df *ABS*	00000000 lib2-divmod.c
00000000 l    df *ABS*	00000000 libgcc2.c
00000000 l    df *ABS*	00000000 alt_close.c
00007770 l     F .text	0000003c alt_get_errno
00000000 l    df *ABS*	00000000 alt_dcache_flush.c
00000000 l    df *ABS*	00000000 alt_dev.c
000078f4 l     F .text	0000002c alt_dev_null_write
00000000 l    df *ABS*	00000000 alt_errno.c
00000000 l    df *ABS*	00000000 alt_exit.c
00000000 l    df *ABS*	00000000 alt_fstat.c
00007954 l     F .text	0000003c alt_get_errno
00000000 l    df *ABS*	00000000 alt_getpid.c
00000000 l    df *ABS*	00000000 alt_isatty.c
00007a60 l     F .text	0000003c alt_get_errno
00000000 l    df *ABS*	00000000 alt_kill.c
00007b40 l     F .text	0000003c alt_get_errno
00000000 l    df *ABS*	00000000 alt_load.c
00007cac l     F .text	00000068 alt_load_section
00000000 l    df *ABS*	00000000 alt_lseek.c
00007d98 l     F .text	0000003c alt_get_errno
00000000 l    df *ABS*	00000000 alt_main.c
00000000 l    df *ABS*	00000000 alt_malloc_lock.c
00000000 l    df *ABS*	00000000 alt_read.c
00007f6c l     F .text	0000003c alt_get_errno
00000000 l    df *ABS*	00000000 alt_release_fd.c
00000000 l    df *ABS*	00000000 alt_sbrk.c
0000bcdc l     O .rwdata	00000004 heap_end
00000000 l    df *ABS*	00000000 alt_write.c
000081b8 l     F .text	0000003c alt_get_errno
00000000 l    df *ABS*	00000000 alt_sys_init.c
000082ec l     F .text	00000034 alt_dev_reg
0000ac48 l     O .rwdata	00001060 jtag_uart
00000000 l    df *ABS*	00000000 altera_avalon_jtag_uart_fd.c
00000000 l    df *ABS*	00000000 altera_avalon_jtag_uart_init.c
000085dc l     F .text	0000020c altera_avalon_jtag_uart_irq
000087e8 l     F .text	000000a0 altera_avalon_jtag_uart_timeout
00000000 l    df *ABS*	00000000 altera_avalon_jtag_uart_ioctl.c
00000000 l    df *ABS*	00000000 altera_avalon_jtag_uart_read.c
00000000 l    df *ABS*	00000000 altera_avalon_jtag_uart_write.c
00000000 l    df *ABS*	00000000 altera_avalon_timer_sc.c
00008e20 l     F .text	00000078 alt_avalon_timer_sc_irq
00000000 l    df *ABS*	00000000 alt_alarm_start.c
00000000 l    df *ABS*	00000000 alt_dcache_flush_all.c
00000000 l    df *ABS*	00000000 alt_dev_llist_insert.c
00009088 l     F .text	0000003c alt_get_errno
00000000 l    df *ABS*	00000000 alt_do_ctors.c
00000000 l    df *ABS*	00000000 alt_do_dtors.c
00000000 l    df *ABS*	00000000 alt_icache_flush_all.c
00000000 l    df *ABS*	00000000 alt_iic.c
00000000 l    df *ABS*	00000000 alt_iic_isr_register.c
00000000 l    df *ABS*	00000000 alt_io_redirect.c
000094fc l     F .text	000000c4 alt_open_fd
00000000 l    df *ABS*	00000000 alt_irq_vars.c
00000000 l    df *ABS*	00000000 alt_open.c
0000963c l     F .text	0000003c alt_get_errno
00009678 l     F .text	000000c4 alt_file_locked
00000000 l    df *ABS*	00000000 alt_tick.c
00000000 l    df *ABS*	00000000 altera_nios2_gen2_irq.c
00000000 l    df *ABS*	00000000 alt_find_dev.c
00000000 l    df *ABS*	00000000 alt_find_file.c
00000000 l    df *ABS*	00000000 alt_get_fd.c
00000000 l    df *ABS*	00000000 alt_icache_flush.c
00000000 l    df *ABS*	00000000 atexit.c
00000000 l    df *ABS*	00000000 __atexit.c
0000d810 g     O .bss	00000004 alt_instruction_exception_handler
00006ab8 g     F .text	00000054 _isatty_r
000002b8 g     F .text	000001e4 start_mapping_listener
00007ea8 g     F .text	0000007c alt_main
000028bc g     F .text	000000c0 _puts_r
0000d83c g     O .bss	00000100 alt_irq
000063c4 g     F .text	00000060 _lseek_r
0000bcec g       *ABS*	00000000 __flash_rwdata_start
00000858 g     F .text	00000064 cuckoo_hash_remove
000005d4 g     F .text	0000003c cuckoo_hash_destroy
0000d93c g       *ABS*	00000000 __alt_heap_start
00004348 g     F .text	0000005c _kill_r
00006874 g     F .text	0000009c _wcrtomb_r
00004110 g     F .text	00000084 _signal_r
00004480 g     F .text	0000005c __sseek
000034f8 g     F .text	00000010 __sinit
0000671c g     F .text	00000140 __swbuf_r
00001000 g     F .text	000001c0 cuckoo_hash_insert
000062e8 g     F .text	0000007c _setlocale_r
00003360 g     F .text	00000068 __sfmoreglue
00007f48 g     F .text	00000024 __malloc_unlock
00002638 g     F .text	0000015c memmove
000034e0 g     F .text	00000018 _cleanup
00009a34 g     F .text	00000024 altera_nios2_gen2_irq_init
00000000 g     F .entry	0000001c __reset
00000020 g       *ABS*	00000000 __flash_exceptions_start
00006a5c g     F .text	0000005c _fstat_r
0000d7e8 g     O .bss	00000004 errno
000043fc g     F .text	00000008 __seofread
0000d7fc g     O .bss	00000004 alt_argv
00013ca8 g       *ABS*	00000000 _gp
00007a40 g     F .text	00000020 getpid
0000aac8 g     O .rwdata	00000180 alt_fd_list
00009a58 g     F .text	00000090 alt_find_dev
000024f0 g     F .text	00000148 memcpy
000031b0 g     F .text	0000000c _cleanup_r
000095c0 g     F .text	0000007c alt_io_redirect
00009eec g       *ABS*	00000000 __DTOR_END__
0000297c g     F .text	00000014 puts
00009d24 g     F .text	0000009c alt_exception_cause_generated_bad_addr
00005a54 g     F .text	0000001c __vfiprintf_internal
000089e0 g     F .text	0000021c altera_avalon_jtag_uart_read
00001c40 g     F .text	00000014 malloc
00000000 g       *ABS*	00000000 __alt_mem_onchip_memory2_0
000076b4 g     F .text	00000064 .hidden __udivsi3
00007a9c g     F .text	000000a4 isatty
00004194 g     F .text	000000bc _raise_r
00001954 g     F .text	00000068 __assert_func
00006364 g     F .text	0000000c __locale_charset
00009c94 g     F .text	00000090 alt_icache_flush
0000d7e4 g     O .bss	00000004 __malloc_top_pad
000043a4 g     F .text	00000004 _getpid_r
0000bcbc g     O .rwdata	00000004 __mb_cur_max
00006394 g     F .text	0000000c _localeconv_r
0000397c g     F .text	000004bc __sfvwrite_r
00004250 g     F .text	000000a8 __sigtramp_r
00002f0c g     F .text	00000054 _sbrk_r
000065e0 g     F .text	00000060 _read_r
0000787c g     F .text	00000078 alt_dcache_flush
0000bcd4 g     O .rwdata	00000004 alt_max_fd
00005d34 g     F .text	000000f0 _fclose_r
000060b0 g     F .text	00000030 fflush
0000d7e0 g     O .bss	00000004 __malloc_max_sbrked_mem
00000290 g     F .text	00000028 debug_flush
000012c4 g     F .text	0000065c hashlittle2
00000534 g     F .text	000000a0 cuckoo_hash_init
00007084 g     F .text	00000538 .hidden __umoddi3
00007dd4 g     F .text	000000d4 lseek
0000bcac g     O .rwdata	00000004 _global_impure_ptr
000029a8 g     F .text	00000564 _realloc_r
0000d93c g       *ABS*	00000000 __bss_end
0000940c g     F .text	000000f0 alt_iic_isr_register
0000992c g     F .text	00000108 alt_tick
00006b0c g     F .text	00000578 .hidden __udivdi3
00006244 g     F .text	00000024 _fputwc_r
00003190 g     F .text	00000018 abort
00003518 g     F .text	00000018 __fp_lock_all
000093c0 g     F .text	0000004c alt_ic_irq_enabled
00009890 g     F .text	0000009c alt_alarm_stop
0000d804 g     O .bss	00000004 alt_irq_active
000000fc g     F .exceptions	000000d4 alt_irq_handler
0000aaa0 g     O .rwdata	00000028 alt_dev_null
00009040 g     F .text	00000048 alt_dcache_flush_all
000019d0 g     F .text	00000018 calloc
000011c0 g     F .text	00000104 cuckoo_hash_next
0000bcec g       *ABS*	00000000 __ram_rwdata_end
0000bccc g     O .rwdata	00000008 alt_dev_list
000081f4 g     F .text	000000f8 write
0000a1fc g       *ABS*	00000000 __ram_rodata_end
00007990 g     F .text	000000b0 fstat
00007b7c g     F .text	00000130 kill
0000d7f4 g     O .bss	00000004 __nlocale_changed
000045f8 g     F .text	0000145c ___vfiprintf_internal_r
00007718 g     F .text	00000058 .hidden __umodsi3
0000d93c g       *ABS*	00000000 end
0000851c g     F .text	000000c0 altera_avalon_jtag_uart_init
000001d0 g     F .exceptions	00000074 alt_instruction_exception_entry
00009eec g       *ABS*	00000000 __CTOR_LIST__
000186a0 g       *ABS*	00000000 __alt_stack_pointer
00008e98 g     F .text	0000007c alt_avalon_timer_sc_init
00008bfc g     F .text	00000224 altera_avalon_jtag_uart_write
00003508 g     F .text	00000004 __sfp_lock_acquire
00003fc0 g     F .text	000000e4 memchr
0000366c g     F .text	00000310 _free_r
00006370 g     F .text	00000010 __locale_mb_cur_max
00003010 g     F .text	00000180 __call_exitprocs
0000d7f0 g     O .bss	00000004 __mlocale_changed
0000bcb4 g     O .rwdata	00000004 __malloc_sbrk_base
00000244 g     F .text	0000004c _start
0000d808 g     O .bss	00000004 _alt_tick_rate
0000d80c g     O .bss	00000004 _alt_nticks
0000430c g     F .text	00000018 signal
00007fa8 g     F .text	000000fc read
00008358 g     F .text	00000060 alt_sys_init
00009dd4 g     F .text	00000118 __register_exitproc
00008888 g     F .text	00000068 altera_avalon_jtag_uart_close
0000a1fc g       *ABS*	00000000 __ram_rwdata_start
00009eec g       *ABS*	00000000 __ram_rodata_start
0000d814 g     O .bss	00000028 __malloc_current_mallinfo
00002990 g     F .text	00000018 realloc
000083b8 g     F .text	00000060 altera_avalon_jtag_uart_read_fd
00009bf0 g     F .text	000000a4 alt_get_fd
00005ce0 g     F .text	00000054 _close_r
00002474 g     F .text	0000007c memcmp
00008478 g     F .text	00000050 altera_avalon_jtag_uart_close_fd
0000d93c g       *ABS*	00000000 __alt_stack_base
000084c8 g     F .text	00000054 altera_avalon_jtag_uart_ioctl_fd
00001b40 g     F .text	000000cc _fwrite_r
00005b8c g     F .text	00000154 __swsetup_r
000033c8 g     F .text	00000118 __sfp
0000a620 g     O .rwdata	00000408 __malloc_av_
00003514 g     F .text	00000004 __sinit_lock_release
000043a8 g     F .text	00000054 __sread
00009ae8 g     F .text	00000108 alt_find_file
000090c4 g     F .text	000000a4 alt_dev_llist_insert
00007f24 g     F .text	00000024 __malloc_lock
00008108 g     F .text	000000b0 sbrk
00006054 g     F .text	0000005c _fflush_r
000019e8 g     F .text	000000c4 _calloc_r
0000d7dc g       *ABS*	00000000 __bss_start
00002794 g     F .text	00000128 memset
00001920 g     F .text	00000034 main
0000d800 g     O .bss	00000004 alt_envp
0000d7dc g     O .bss	00000004 __malloc_max_total_mem
00008418 g     F .text	00000060 altera_avalon_jtag_uart_write_fd
0000685c g     F .text	00000018 __swbuf
000044dc g     F .text	00000008 __sclose
000186a0 g       *ABS*	00000000 __alt_heap_limit
00005e24 g     F .text	00000014 fclose
00001c68 g     F .text	0000080c _malloc_r
000069d0 g     F .text	00000030 __ascii_wctomb
0000bcd8 g     O .rwdata	00000004 alt_errno
00001ae4 g     F .text	00000020 _fiprintf_r
00004324 g     F .text	00000010 _init_signal
00003e38 g     F .text	000000c4 _fwalk
000075bc g     F .text	00000084 .hidden __divsi3
00003548 g     F .text	00000124 _malloc_trim_r
00009eec g       *ABS*	00000000 __CTOR_END__
00006640 g     F .text	000000dc strcmp
00009eec g       *ABS*	00000000 __flash_rodata_start
00009eec g       *ABS*	00000000 __DTOR_LIST__
00008320 g     F .text	00000038 alt_irq_init
000080a4 g     F .text	00000064 alt_release_fd
0000a0d0 g     O .rodata	00000100 .hidden __clz_tab
0000d7ec g     O .bss	00000004 _PathLocale
00009dc0 g     F .text	00000014 atexit
00005b2c g     F .text	00000060 _write_r
000063a0 g     F .text	00000018 setlocale
0000bcb0 g     O .rwdata	00000004 _impure_ptr
0000d7f8 g     O .bss	00000004 alt_argc
00005e38 g     F .text	0000021c __sflush_r
000091c8 g     F .text	00000060 _do_dtors
0000638c g     F .text	00000008 __locale_cjk_lang
00000020 g       .exceptions	00000000 alt_irq_entry
00003530 g     F .text	00000018 __fp_unlock_all
000007f0 g     F .text	00000068 cuckoo_hash_lookup
0000bcc4 g     O .rwdata	00000008 alt_fs_list
00000020 g       *ABS*	00000000 __ram_exceptions_start
000063b8 g     F .text	0000000c localeconv
0000925c g     F .text	00000050 alt_ic_isr_register
00001c0c g     F .text	00000034 fwrite
0000bcec g       *ABS*	00000000 _edata
0000d93c g       *ABS*	00000000 _end
000060e0 g     F .text	00000164 __fputwc
00000244 g       *ABS*	00000000 __ram_exceptions_end
000088f0 g     F .text	000000f0 altera_avalon_jtag_uart_ioctl
00009334 g     F .text	0000008c alt_ic_irq_disable
00004404 g     F .text	0000007c __swrite
0000bcb8 g     O .rwdata	00000004 __malloc_trim_threshold
00006380 g     F .text	0000000c __locale_msgcharset
00001aac g     F .text	00000038 exit
00001b04 g     F .text	0000003c fiprintf
00002ff8 g     F .text	00000018 _vfiprintf_r
00003efc g     F .text	000000c4 _fwalk_reent
00007640 g     F .text	00000074 .hidden __modsi3
000186a0 g       *ABS*	00000000 __alt_data_end
00000020 g     F .exceptions	00000000 alt_exception
0000bca8 g     O .rwdata	00000004 kItemSize
0000350c g     F .text	00000004 __sfp_lock_release
00007920 g     F .text	00000034 _exit
00008f14 g     F .text	0000012c alt_alarm_start
00006424 g     F .text	000001bc __smakebuf_r
00002f60 g     F .text	00000098 strlen
000040a4 g     F .text	0000006c _init_signal_r
0000973c g     F .text	00000154 open
000019bc g     F .text	00000014 __assert
0000bcc0 g     O .rwdata	00000004 __wctomb
000045e0 g     F .text	00000018 __sprint_r
00009228 g     F .text	00000034 alt_icache_flush_all
0000bce0 g     O .rwdata	00000004 alt_priority_mask
000092ac g     F .text	00000088 alt_ic_irq_enable
00006a00 g     F .text	0000005c _wctomb_r
0000bce4 g     O .rwdata	00000008 alt_alarm_list
00009168 g     F .text	00000060 _do_ctors
00004334 g     F .text	00000014 __sigtramp
00006910 g     F .text	000000c0 wcrtomb
000077ac g     F .text	000000d0 close
00007d14 g     F .text	00000084 alt_load
00006268 g     F .text	00000080 fputwc
000042f8 g     F .text	00000014 raise
00001c54 g     F .text	00000014 free
00003510 g     F .text	00000004 __sinit_lock_acquire



Disassembly of section .entry:

00000000 <__reset>:
   0:	00840014 	movui	r2,4096
   4:	1001483a 	initi	r2
   8:	10bff804 	addi	r2,r2,-32
   c:	00bffd16 	blt	zero,r2,4 <__reset+0x4>
  10:	00400034 	movhi	at,0
  14:	08409114 	ori	at,at,580
  18:	0800683a 	jmp	at
  1c:	00000000 	call	0 <__reset>

Disassembly of section .exceptions:

00000020 <alt_exception>:
  20:	deffed04 	addi	sp,sp,-76
  24:	dfc00015 	stw	ra,0(sp)
  28:	d8400215 	stw	at,8(sp)
  2c:	d8800315 	stw	r2,12(sp)
  30:	d8c00415 	stw	r3,16(sp)
  34:	d9000515 	stw	r4,20(sp)
  38:	d9400615 	stw	r5,24(sp)
  3c:	d9800715 	stw	r6,28(sp)
  40:	d9c00815 	stw	r7,32(sp)
  44:	000b307a 	rdctl	r5,estatus
  48:	da000915 	stw	r8,36(sp)
  4c:	da400a15 	stw	r9,40(sp)
  50:	da800b15 	stw	r10,44(sp)
  54:	dac00c15 	stw	r11,48(sp)
  58:	db000d15 	stw	r12,52(sp)
  5c:	db400e15 	stw	r13,56(sp)
  60:	db800f15 	stw	r14,60(sp)
  64:	dbc01015 	stw	r15,64(sp)
  68:	d9401115 	stw	r5,68(sp)
  6c:	ebffff04 	addi	r15,ea,-4
  70:	dbc01215 	stw	r15,72(sp)
  74:	0009313a 	rdctl	r4,ipending
  78:	2880004c 	andi	r2,r5,1
  7c:	10000326 	beq	r2,zero,8c <alt_exception+0x6c>
  80:	20000226 	beq	r4,zero,8c <alt_exception+0x6c>
  84:	00000fc0 	call	fc <alt_irq_handler>
  88:	00000706 	br	a8 <alt_exception+0x88>
  8c:	df401215 	stw	ea,72(sp)
  90:	e8bfff17 	ldw	r2,-4(ea)
  94:	e93fff04 	addi	r4,ea,-4
  98:	00001d00 	call	1d0 <alt_instruction_exception_entry>
  9c:	1000021e 	bne	r2,zero,a8 <alt_exception+0x88>
  a0:	ebffff04 	addi	r15,ea,-4
  a4:	dbc01215 	stw	r15,72(sp)
  a8:	d9401117 	ldw	r5,68(sp)
  ac:	df401217 	ldw	ea,72(sp)
  b0:	dfc00017 	ldw	ra,0(sp)
  b4:	2801707a 	wrctl	estatus,r5
  b8:	d8400217 	ldw	at,8(sp)
  bc:	d8800317 	ldw	r2,12(sp)
  c0:	d8c00417 	ldw	r3,16(sp)
  c4:	d9000517 	ldw	r4,20(sp)
  c8:	d9400617 	ldw	r5,24(sp)
  cc:	d9800717 	ldw	r6,28(sp)
  d0:	d9c00817 	ldw	r7,32(sp)
  d4:	da000917 	ldw	r8,36(sp)
  d8:	da400a17 	ldw	r9,40(sp)
  dc:	da800b17 	ldw	r10,44(sp)
  e0:	dac00c17 	ldw	r11,48(sp)
  e4:	db000d17 	ldw	r12,52(sp)
  e8:	db400e17 	ldw	r13,56(sp)
  ec:	db800f17 	ldw	r14,60(sp)
  f0:	dbc01017 	ldw	r15,64(sp)
  f4:	dec01304 	addi	sp,sp,76
  f8:	ef80083a 	eret

000000fc <alt_irq_handler>:
  fc:	defff904 	addi	sp,sp,-28
 100:	dfc00615 	stw	ra,24(sp)
 104:	df000515 	stw	fp,20(sp)
 108:	df000504 	addi	fp,sp,20
 10c:	0001883a 	nop
 110:	0005313a 	rdctl	r2,ipending
 114:	e0bffe15 	stw	r2,-8(fp)
 118:	e0bffe17 	ldw	r2,-8(fp)
 11c:	e0bffb15 	stw	r2,-20(fp)
 120:	e03ffd15 	stw	zero,-12(fp)
 124:	00800044 	movi	r2,1
 128:	e0bffc15 	stw	r2,-16(fp)
 12c:	e0fffb17 	ldw	r3,-20(fp)
 130:	e0bffc17 	ldw	r2,-16(fp)
 134:	1884703a 	and	r2,r3,r2
 138:	10001426 	beq	r2,zero,18c <alt_irq_handler+0x90>
 13c:	00800074 	movhi	r2,1
 140:	10b60f04 	addi	r2,r2,-10180
 144:	e0fffd17 	ldw	r3,-12(fp)
 148:	180690fa 	slli	r3,r3,3
 14c:	10c5883a 	add	r2,r2,r3
 150:	10c00017 	ldw	r3,0(r2)
 154:	00800074 	movhi	r2,1
 158:	10b60f04 	addi	r2,r2,-10180
 15c:	e13ffd17 	ldw	r4,-12(fp)
 160:	200890fa 	slli	r4,r4,3
 164:	1105883a 	add	r2,r2,r4
 168:	10800104 	addi	r2,r2,4
 16c:	10800017 	ldw	r2,0(r2)
 170:	1009883a 	mov	r4,r2
 174:	183ee83a 	callr	r3
 178:	0001883a 	nop
 17c:	0005313a 	rdctl	r2,ipending
 180:	e0bfff15 	stw	r2,-4(fp)
 184:	e0bfff17 	ldw	r2,-4(fp)
 188:	00000706 	br	1a8 <alt_irq_handler+0xac>
 18c:	e0bffc17 	ldw	r2,-16(fp)
 190:	1085883a 	add	r2,r2,r2
 194:	e0bffc15 	stw	r2,-16(fp)
 198:	e0bffd17 	ldw	r2,-12(fp)
 19c:	10800044 	addi	r2,r2,1
 1a0:	e0bffd15 	stw	r2,-12(fp)
 1a4:	003fe106 	br	12c <alt_irq_handler+0x30>
 1a8:	e0bffb15 	stw	r2,-20(fp)
 1ac:	e0bffb17 	ldw	r2,-20(fp)
 1b0:	103fdb1e 	bne	r2,zero,120 <alt_irq_handler+0x24>
 1b4:	0001883a 	nop
 1b8:	0001883a 	nop
 1bc:	e037883a 	mov	sp,fp
 1c0:	dfc00117 	ldw	ra,4(sp)
 1c4:	df000017 	ldw	fp,0(sp)
 1c8:	dec00204 	addi	sp,sp,8
 1cc:	f800283a 	ret

000001d0 <alt_instruction_exception_entry>:
 1d0:	defffb04 	addi	sp,sp,-20
 1d4:	dfc00415 	stw	ra,16(sp)
 1d8:	df000315 	stw	fp,12(sp)
 1dc:	df000304 	addi	fp,sp,12
 1e0:	e13fff15 	stw	r4,-4(fp)
 1e4:	000531fa 	rdctl	r2,exception
 1e8:	e0bffd15 	stw	r2,-12(fp)
 1ec:	e0bffd17 	ldw	r2,-12(fp)
 1f0:	10801f0c 	andi	r2,r2,124
 1f4:	1004d0ba 	srli	r2,r2,2
 1f8:	e0bffd15 	stw	r2,-12(fp)
 1fc:	0005333a 	rdctl	r2,badaddr
 200:	e0bffe15 	stw	r2,-8(fp)
 204:	d0a6da17 	ldw	r2,-25752(gp)
 208:	10000726 	beq	r2,zero,228 <alt_instruction_exception_entry+0x58>
 20c:	d0a6da17 	ldw	r2,-25752(gp)
 210:	e0fffd17 	ldw	r3,-12(fp)
 214:	e1bffe17 	ldw	r6,-8(fp)
 218:	e17fff17 	ldw	r5,-4(fp)
 21c:	1809883a 	mov	r4,r3
 220:	103ee83a 	callr	r2
 224:	00000206 	br	230 <alt_instruction_exception_entry+0x60>
 228:	003da03a 	break	0
 22c:	0005883a 	mov	r2,zero
 230:	e037883a 	mov	sp,fp
 234:	dfc00117 	ldw	ra,4(sp)
 238:	df000017 	ldw	fp,0(sp)
 23c:	dec00204 	addi	sp,sp,8
 240:	f800283a 	ret

Disassembly of section .text:

00000244 <_start>:
     244:	00820014 	movui	r2,2048
     248:	10000033 	initd	0(r2)
     24c:	10bff804 	addi	r2,r2,-32
     250:	00bffd16 	blt	zero,r2,248 <_start+0x4>
     254:	06c00074 	movhi	sp,1
     258:	dee1a814 	ori	sp,sp,34464
     25c:	06800074 	movhi	gp,1
     260:	d68f2a14 	ori	gp,gp,15528
     264:	00800034 	movhi	r2,0
     268:	10b5f714 	ori	r2,r2,55260
     26c:	00c00034 	movhi	r3,0
     270:	18f64f14 	ori	r3,r3,55612
     274:	10c00326 	beq	r2,r3,284 <_start+0x40>
     278:	10000015 	stw	zero,0(r2)
     27c:	10800104 	addi	r2,r2,4
     280:	10fffd36 	bltu	r2,r3,278 <_start+0x34>
     284:	0007d140 	call	7d14 <alt_load>
     288:	0007ea80 	call	7ea8 <alt_main>

0000028c <alt_after_alt_main>:
     28c:	003fff06 	br	28c <alt_after_alt_main>

00000290 <debug_flush>:
/* initial hash table size, which is (bin_size << power) */
#define HASH_TABLE_POWER 7

const int kItemSize = sizeof(alt_u32);

void debug_flush(alt_u32 *pSrc, alt_u32 *pStart) {
     290:	defffd04 	addi	sp,sp,-12
     294:	df000215 	stw	fp,8(sp)
     298:	df000204 	addi	fp,sp,8
     29c:	e13ffe15 	stw	r4,-8(fp)
     2a0:	e17fff15 	stw	r5,-4(fp)
    if (DEBUG) {
        printf("Flushed %d bytes from %8p to %8p\n\n",
                (pSrc - pStart) * kItemSize, pStart, pSrc - 1);
    }
}
     2a4:	0001883a 	nop
     2a8:	e037883a 	mov	sp,fp
     2ac:	df000017 	ldw	fp,0(sp)
     2b0:	dec00104 	addi	sp,sp,4
     2b4:	f800283a 	ret

000002b8 <start_mapping_listener>:

void start_mapping_listener(alt_u32 baseAddr, alt_u32 byteLen) {
     2b8:	defff204 	addi	sp,sp,-56
     2bc:	dfc00d15 	stw	ra,52(sp)
     2c0:	df000c15 	stw	fp,48(sp)
     2c4:	df000c04 	addi	fp,sp,48
     2c8:	e13ffe15 	stw	r4,-8(fp)
     2cc:	e17fff15 	stw	r5,-4(fp)
    const int kRingSize = 256;
     2d0:	00804004 	movi	r2,256
     2d4:	e0bff615 	stw	r2,-40(fp)
    const int kCacheSize = 32;
     2d8:	00800804 	movi	r2,32
     2dc:	e0bff715 	stw	r2,-36(fp)
    const alt_u32 *kEndAddr = (alt_u32 *) baseAddr + kRingSize;
     2e0:	e0bff617 	ldw	r2,-40(fp)
     2e4:	1085883a 	add	r2,r2,r2
     2e8:	1085883a 	add	r2,r2,r2
     2ec:	1007883a 	mov	r3,r2
     2f0:	e0bffe17 	ldw	r2,-8(fp)
     2f4:	1885883a 	add	r2,r3,r2
     2f8:	e0bff815 	stw	r2,-32(fp)

    struct cuckoo_hash hash_table;
    if (!cuckoo_hash_init(&hash_table, HASH_TABLE_POWER)) {
     2fc:	e0bffa04 	addi	r2,fp,-24
     300:	014001c4 	movi	r5,7
     304:	1009883a 	mov	r4,r2
     308:	00005340 	call	534 <cuckoo_hash_init>
     30c:	1080005c 	xori	r2,r2,1
     310:	10803fcc 	andi	r2,r2,255
     314:	10000a26 	beq	r2,zero,340 <start_mapping_listener+0x88>
        fprintf(stderr,
     318:	d0a00217 	ldw	r2,-32760(gp)
     31c:	10800317 	ldw	r2,12(r2)
     320:	100f883a 	mov	r7,r2
     324:	01800f04 	movi	r6,60
     328:	01400044 	movi	r5,1
     32c:	01000074 	movhi	r4,1
     330:	2127bb04 	addi	r4,r4,-24852
     334:	0001c0c0 	call	1c0c <fwrite>
                "### System Halted: fail to initialize Cuckoo Hash Table ###\n");
        exit(EXIT_FAILURE);
     338:	01000044 	movi	r4,1
     33c:	0001aac0 	call	1aac <exit>
    }
    printf("### Cuckoo Hash Table Initialized ###\n\n");
     340:	01000074 	movhi	r4,1
     344:	2127cb04 	addi	r4,r4,-24788
     348:	000297c0 	call	297c <puts>

    alt_u32 *pSrc = (alt_u32 *) baseAddr;
     34c:	e0bffe17 	ldw	r2,-8(fp)
     350:	e0bff415 	stw	r2,-48(fp)

    // start the main loop
    while (TRUE) {
        int fetchSize = kCacheSize;
     354:	e0bff717 	ldw	r2,-36(fp)
     358:	e0bff515 	stw	r2,-44(fp)
        if (pSrc + fetchSize > kEndAddr) {
     35c:	e0bff517 	ldw	r2,-44(fp)
     360:	1085883a 	add	r2,r2,r2
     364:	1085883a 	add	r2,r2,r2
     368:	1007883a 	mov	r3,r2
     36c:	e0bff417 	ldw	r2,-48(fp)
     370:	10c5883a 	add	r2,r2,r3
     374:	e0fff817 	ldw	r3,-32(fp)
     378:	1880052e 	bgeu	r3,r2,390 <start_mapping_listener+0xd8>
            fetchSize = kEndAddr - pSrc;
     37c:	e0fff817 	ldw	r3,-32(fp)
     380:	e0bff417 	ldw	r2,-48(fp)
     384:	1885c83a 	sub	r2,r3,r2
     388:	1005d0ba 	srai	r2,r2,2
     38c:	e0bff515 	stw	r2,-44(fp)
        }
        alt_dcache_flush(pSrc, fetchSize * kItemSize);
     390:	00c00104 	movi	r3,4
     394:	e0bff517 	ldw	r2,-44(fp)
     398:	1885383a 	mul	r2,r3,r2
     39c:	100b883a 	mov	r5,r2
     3a0:	e13ff417 	ldw	r4,-48(fp)
     3a4:	000787c0 	call	787c <alt_dcache_flush>

        alt_u32 *pStart = pSrc;
     3a8:	e0bff417 	ldw	r2,-48(fp)
     3ac:	e0bff915 	stw	r2,-28(fp)
        while (pSrc < pStart + fetchSize) {
     3b0:	00001906 	br	418 <start_mapping_listener+0x160>
            if (*pSrc == RESET_VAL) {
     3b4:	e0bff417 	ldw	r2,-48(fp)
     3b8:	10800017 	ldw	r2,0(r2)
     3bc:	1000111e 	bne	r2,zero,404 <start_mapping_listener+0x14c>
                if (pSrc != pStart) {
     3c0:	e0fff417 	ldw	r3,-48(fp)
     3c4:	e0bff917 	ldw	r2,-28(fp)
     3c8:	18801c26 	beq	r3,r2,43c <start_mapping_listener+0x184>
                    alt_dcache_flush(pStart, (pSrc - pStart) * kItemSize);
     3cc:	e0fff417 	ldw	r3,-48(fp)
     3d0:	e0bff917 	ldw	r2,-28(fp)
     3d4:	1885c83a 	sub	r2,r3,r2
     3d8:	1005d0ba 	srai	r2,r2,2
     3dc:	1007883a 	mov	r3,r2
     3e0:	00800104 	movi	r2,4
     3e4:	1885383a 	mul	r2,r3,r2
     3e8:	100b883a 	mov	r5,r2
     3ec:	e13ff917 	ldw	r4,-28(fp)
     3f0:	000787c0 	call	787c <alt_dcache_flush>
                    debug_flush(pSrc, pStart);
     3f4:	e17ff917 	ldw	r5,-28(fp)
     3f8:	e13ff417 	ldw	r4,-48(fp)
     3fc:	00002900 	call	290 <debug_flush>
                }
                break;
     400:	00000e06 	br	43c <start_mapping_listener+0x184>
//                        (unsigned int) *((alt_u32 *) item->value),
//                        cuckoo_hash_count(&hash_table));
//            }

            // reset the shared memory address so that HPS can set a new value
            *pSrc = RESET_VAL;
     404:	e0bff417 	ldw	r2,-48(fp)
     408:	10000015 	stw	zero,0(r2)

            pSrc++;
     40c:	e0bff417 	ldw	r2,-48(fp)
     410:	10800104 	addi	r2,r2,4
     414:	e0bff415 	stw	r2,-48(fp)
            fetchSize = kEndAddr - pSrc;
        }
        alt_dcache_flush(pSrc, fetchSize * kItemSize);

        alt_u32 *pStart = pSrc;
        while (pSrc < pStart + fetchSize) {
     418:	e0bff517 	ldw	r2,-44(fp)
     41c:	1085883a 	add	r2,r2,r2
     420:	1085883a 	add	r2,r2,r2
     424:	1007883a 	mov	r3,r2
     428:	e0bff917 	ldw	r2,-28(fp)
     42c:	10c5883a 	add	r2,r2,r3
     430:	e0fff417 	ldw	r3,-48(fp)
     434:	18bfdf36 	bltu	r3,r2,3b4 <start_mapping_listener+0xfc>
     438:	00000106 	br	440 <start_mapping_listener+0x188>
            if (*pSrc == RESET_VAL) {
                if (pSrc != pStart) {
                    alt_dcache_flush(pStart, (pSrc - pStart) * kItemSize);
                    debug_flush(pSrc, pStart);
                }
                break;
     43c:	0001883a 	nop
            *pSrc = RESET_VAL;

            pSrc++;
        }

        if (pSrc >= pStart + fetchSize) {
     440:	e0bff517 	ldw	r2,-44(fp)
     444:	1085883a 	add	r2,r2,r2
     448:	1085883a 	add	r2,r2,r2
     44c:	1007883a 	mov	r3,r2
     450:	e0bff917 	ldw	r2,-28(fp)
     454:	10c5883a 	add	r2,r2,r3
     458:	e0fff417 	ldw	r3,-48(fp)
     45c:	18800936 	bltu	r3,r2,484 <start_mapping_listener+0x1cc>
            alt_dcache_flush(pStart, fetchSize * kItemSize);
     460:	00c00104 	movi	r3,4
     464:	e0bff517 	ldw	r2,-44(fp)
     468:	1885383a 	mul	r2,r3,r2
     46c:	100b883a 	mov	r5,r2
     470:	e13ff917 	ldw	r4,-28(fp)
     474:	000787c0 	call	787c <alt_dcache_flush>
            debug_flush(pSrc, pStart);
     478:	e17ff917 	ldw	r5,-28(fp)
     47c:	e13ff417 	ldw	r4,-48(fp)
     480:	00002900 	call	290 <debug_flush>
        }

        if (pSrc >= kEndAddr) {
     484:	e0fff417 	ldw	r3,-48(fp)
     488:	e0bff817 	ldw	r2,-32(fp)
     48c:	18bfb136 	bltu	r3,r2,354 <start_mapping_listener+0x9c>
            pSrc = (alt_u32 *) baseAddr;
     490:	e0bffe17 	ldw	r2,-8(fp)
     494:	e0bff415 	stw	r2,-48(fp)
        }
    }
     498:	003fae06 	br	354 <start_mapping_listener+0x9c>

0000049c <compute_hash>:
#include <stdint.h>
#include <stdlib.h>
#include <string.h>

static inline void compute_hash(const void *key, size_t key_len, uint32_t *h1,
        uint32_t *h2) {
     49c:	defffa04 	addi	sp,sp,-24
     4a0:	dfc00515 	stw	ra,20(sp)
     4a4:	df000415 	stw	fp,16(sp)
     4a8:	df000404 	addi	fp,sp,16
     4ac:	e13ffc15 	stw	r4,-16(fp)
     4b0:	e17ffd15 	stw	r5,-12(fp)
     4b4:	e1bffe15 	stw	r6,-8(fp)
     4b8:	e1ffff15 	stw	r7,-4(fp)
    extern void hashlittle2(const void *key, size_t length, uint32_t *pc,
            uint32_t *pb);

    /* Initial values are arbitrary.  */
    *h1 = 0x3ac5d673;
     4bc:	e0fffe17 	ldw	r3,-8(fp)
     4c0:	008eb1b4 	movhi	r2,15046
     4c4:	10b59cc4 	addi	r2,r2,-10637
     4c8:	18800015 	stw	r2,0(r3)
    *h2 = 0x6d7839d0;
     4cc:	e0ffff17 	ldw	r3,-4(fp)
     4d0:	009b5e34 	movhi	r2,28024
     4d4:	108e7404 	addi	r2,r2,14800
     4d8:	18800015 	stw	r2,0(r3)
    hashlittle2(key, key_len, h1, h2);
     4dc:	e1ffff17 	ldw	r7,-4(fp)
     4e0:	e1bffe17 	ldw	r6,-8(fp)
     4e4:	e17ffd17 	ldw	r5,-12(fp)
     4e8:	e13ffc17 	ldw	r4,-16(fp)
     4ec:	00012c40 	call	12c4 <hashlittle2>
    if (*h1 != *h2) {
     4f0:	e0bffe17 	ldw	r2,-8(fp)
     4f4:	10c00017 	ldw	r3,0(r2)
     4f8:	e0bfff17 	ldw	r2,-4(fp)
     4fc:	10800017 	ldw	r2,0(r2)
     500:	1880061e 	bne	r3,r2,51c <compute_hash+0x80>
        return;
    } else {
        *h2 = ~*h2;
     504:	e0bfff17 	ldw	r2,-4(fp)
     508:	10800017 	ldw	r2,0(r2)
     50c:	0086303a 	nor	r3,zero,r2
     510:	e0bfff17 	ldw	r2,-4(fp)
     514:	10c00015 	stw	r3,0(r2)
     518:	00000106 	br	520 <compute_hash+0x84>
    /* Initial values are arbitrary.  */
    *h1 = 0x3ac5d673;
    *h2 = 0x6d7839d0;
    hashlittle2(key, key_len, h1, h2);
    if (*h1 != *h2) {
        return;
     51c:	0001883a 	nop
        *h2 = ~*h2;

        XPROBES_SITE(cuckoo_hash, compute_hash_equal,
                (const void *, size_t, uint32_t), (key, key_len, *h1));
    }
}
     520:	e037883a 	mov	sp,fp
     524:	dfc00117 	ldw	ra,4(sp)
     528:	df000017 	ldw	fp,0(sp)
     52c:	dec00204 	addi	sp,sp,8
     530:	f800283a 	ret

00000534 <cuckoo_hash_init>:
    struct cuckoo_hash_item hash_item;
    uint32_t hash1;
    uint32_t hash2;
};

bool cuckoo_hash_init(struct cuckoo_hash *hash, unsigned char power) {
     534:	defffc04 	addi	sp,sp,-16
     538:	dfc00315 	stw	ra,12(sp)
     53c:	df000215 	stw	fp,8(sp)
     540:	df000204 	addi	fp,sp,8
     544:	e13ffe15 	stw	r4,-8(fp)
     548:	2805883a 	mov	r2,r5
     54c:	e0bfff05 	stb	r2,-4(fp)
    if (power == 0)
     550:	e0bfff03 	ldbu	r2,-4(fp)
     554:	1000021e 	bne	r2,zero,560 <cuckoo_hash_init+0x2c>
        power = 1;
     558:	00800044 	movi	r2,1
     55c:	e0bfff05 	stb	r2,-4(fp)

    hash->power = power;
     560:	e0bffe17 	ldw	r2,-8(fp)
     564:	e0ffff03 	ldbu	r3,-4(fp)
     568:	10c00305 	stb	r3,12(r2)
    hash->bin_size = 4;
     56c:	e0bffe17 	ldw	r2,-8(fp)
     570:	00c00104 	movi	r3,4
     574:	10c00215 	stw	r3,8(r2)
    hash->count = 0;
     578:	e0bffe17 	ldw	r2,-8(fp)
     57c:	10000115 	stw	zero,4(r2)
    hash->table = calloc((size_t) hash->bin_size << power,
     580:	e0bffe17 	ldw	r2,-8(fp)
     584:	10c00217 	ldw	r3,8(r2)
     588:	e0bfff03 	ldbu	r2,-4(fp)
     58c:	1884983a 	sll	r2,r3,r2
     590:	01400504 	movi	r5,20
     594:	1009883a 	mov	r4,r2
     598:	00019d00 	call	19d0 <calloc>
     59c:	1007883a 	mov	r3,r2
     5a0:	e0bffe17 	ldw	r2,-8(fp)
     5a4:	10c00015 	stw	r3,0(r2)
            sizeof(*hash->table));

    if (!hash->table)
     5a8:	e0bffe17 	ldw	r2,-8(fp)
     5ac:	10800017 	ldw	r2,0(r2)
     5b0:	1000021e 	bne	r2,zero,5bc <cuckoo_hash_init+0x88>
        return false;
     5b4:	0005883a 	mov	r2,zero
     5b8:	00000106 	br	5c0 <cuckoo_hash_init+0x8c>

    XPROBES_SITE(cuckoo_hash, init, (const struct cuckoo_hash *), (hash));

    return true;
     5bc:	00800044 	movi	r2,1
}
     5c0:	e037883a 	mov	sp,fp
     5c4:	dfc00117 	ldw	ra,4(sp)
     5c8:	df000017 	ldw	fp,0(sp)
     5cc:	dec00204 	addi	sp,sp,8
     5d0:	f800283a 	ret

000005d4 <cuckoo_hash_destroy>:

void cuckoo_hash_destroy(const struct cuckoo_hash *hash) {
     5d4:	defffd04 	addi	sp,sp,-12
     5d8:	dfc00215 	stw	ra,8(sp)
     5dc:	df000115 	stw	fp,4(sp)
     5e0:	df000104 	addi	fp,sp,4
     5e4:	e13fff15 	stw	r4,-4(fp)
    XPROBES_SITE(cuckoo_hash, destroy, (const struct cuckoo_hash *), (hash));

    free(hash->table);
     5e8:	e0bfff17 	ldw	r2,-4(fp)
     5ec:	10800017 	ldw	r2,0(r2)
     5f0:	1009883a 	mov	r4,r2
     5f4:	0001c540 	call	1c54 <free>
}
     5f8:	0001883a 	nop
     5fc:	e037883a 	mov	sp,fp
     600:	dfc00117 	ldw	ra,4(sp)
     604:	df000017 	ldw	fp,0(sp)
     608:	dec00204 	addi	sp,sp,8
     60c:	f800283a 	ret

00000610 <bin_at>:

static inline struct _cuckoo_hash_elem *bin_at(const struct cuckoo_hash *hash,
        uint32_t index) {
     610:	defffd04 	addi	sp,sp,-12
     614:	df000215 	stw	fp,8(sp)
     618:	df000204 	addi	fp,sp,8
     61c:	e13ffe15 	stw	r4,-8(fp)
     620:	e17fff15 	stw	r5,-4(fp)
    return (hash->table + index * hash->bin_size);
     624:	e0bffe17 	ldw	r2,-8(fp)
     628:	10c00017 	ldw	r3,0(r2)
     62c:	e0bffe17 	ldw	r2,-8(fp)
     630:	11000217 	ldw	r4,8(r2)
     634:	e0bfff17 	ldw	r2,-4(fp)
     638:	2085383a 	mul	r2,r4,r2
     63c:	10800524 	muli	r2,r2,20
     640:	1885883a 	add	r2,r3,r2
}
     644:	e037883a 	mov	sp,fp
     648:	df000017 	ldw	fp,0(sp)
     64c:	dec00104 	addi	sp,sp,4
     650:	f800283a 	ret

00000654 <lookup>:

static inline struct cuckoo_hash_item *lookup(const struct cuckoo_hash *hash,
        const void *key, size_t key_len, uint32_t h1, uint32_t h2) {
     654:	defff704 	addi	sp,sp,-36
     658:	dfc00815 	stw	ra,32(sp)
     65c:	df000715 	stw	fp,28(sp)
     660:	df000704 	addi	fp,sp,28
     664:	e13ffc15 	stw	r4,-16(fp)
     668:	e17ffd15 	stw	r5,-12(fp)
     66c:	e1bffe15 	stw	r6,-8(fp)
     670:	e1ffff15 	stw	r7,-4(fp)
    uint32_t mask = (1U << hash->power) - 1;
     674:	e0bffc17 	ldw	r2,-16(fp)
     678:	10800303 	ldbu	r2,12(r2)
     67c:	10803fcc 	andi	r2,r2,255
     680:	00c00044 	movi	r3,1
     684:	1884983a 	sll	r2,r3,r2
     688:	10bfffc4 	addi	r2,r2,-1
     68c:	e0bffa15 	stw	r2,-24(fp)

    struct _cuckoo_hash_elem *elem, *end;

    elem = bin_at(hash, (h1 & mask));
     690:	e0ffff17 	ldw	r3,-4(fp)
     694:	e0bffa17 	ldw	r2,-24(fp)
     698:	1884703a 	and	r2,r3,r2
     69c:	100b883a 	mov	r5,r2
     6a0:	e13ffc17 	ldw	r4,-16(fp)
     6a4:	00006100 	call	610 <bin_at>
     6a8:	e0bff915 	stw	r2,-28(fp)
    end = elem + hash->bin_size;
     6ac:	e0bffc17 	ldw	r2,-16(fp)
     6b0:	10800217 	ldw	r2,8(r2)
     6b4:	10800524 	muli	r2,r2,20
     6b8:	e0fff917 	ldw	r3,-28(fp)
     6bc:	1885883a 	add	r2,r3,r2
     6c0:	e0bffb15 	stw	r2,-20(fp)
    while (elem != end) {
     6c4:	00001806 	br	728 <lookup+0xd4>
        if (elem->hash2 == h2 && elem->hash1 == h1
     6c8:	e0bff917 	ldw	r2,-28(fp)
     6cc:	10c00417 	ldw	r3,16(r2)
     6d0:	e0800217 	ldw	r2,8(fp)
     6d4:	1880111e 	bne	r3,r2,71c <lookup+0xc8>
     6d8:	e0bff917 	ldw	r2,-28(fp)
     6dc:	10c00317 	ldw	r3,12(r2)
     6e0:	e0bfff17 	ldw	r2,-4(fp)
     6e4:	18800d1e 	bne	r3,r2,71c <lookup+0xc8>
                && elem->hash_item.key_len == key_len
     6e8:	e0bff917 	ldw	r2,-28(fp)
     6ec:	10c00117 	ldw	r3,4(r2)
     6f0:	e0bffe17 	ldw	r2,-8(fp)
     6f4:	1880091e 	bne	r3,r2,71c <lookup+0xc8>
                && memcmp(elem->hash_item.key, key, key_len) == 0) {
     6f8:	e0bff917 	ldw	r2,-28(fp)
     6fc:	10800017 	ldw	r2,0(r2)
     700:	e1bffe17 	ldw	r6,-8(fp)
     704:	e17ffd17 	ldw	r5,-12(fp)
     708:	1009883a 	mov	r4,r2
     70c:	00024740 	call	2474 <memcmp>
     710:	1000021e 	bne	r2,zero,71c <lookup+0xc8>
            XPROBES_SITE(cuckoo_hash, lookup_hash1, (const struct cuckoo_hash *, int),
                    (hash, hash->bin_size - (end - elem)));

            return &elem->hash_item;
     714:	e0bff917 	ldw	r2,-28(fp)
     718:	00003006 	br	7dc <lookup+0x188>
        }

        ++elem;
     71c:	e0bff917 	ldw	r2,-28(fp)
     720:	10800504 	addi	r2,r2,20
     724:	e0bff915 	stw	r2,-28(fp)

    struct _cuckoo_hash_elem *elem, *end;

    elem = bin_at(hash, (h1 & mask));
    end = elem + hash->bin_size;
    while (elem != end) {
     728:	e0fff917 	ldw	r3,-28(fp)
     72c:	e0bffb17 	ldw	r2,-20(fp)
     730:	18bfe51e 	bne	r3,r2,6c8 <lookup+0x74>
        }

        ++elem;
    }

    elem = bin_at(hash, (h2 & mask));
     734:	e0c00217 	ldw	r3,8(fp)
     738:	e0bffa17 	ldw	r2,-24(fp)
     73c:	1884703a 	and	r2,r3,r2
     740:	100b883a 	mov	r5,r2
     744:	e13ffc17 	ldw	r4,-16(fp)
     748:	00006100 	call	610 <bin_at>
     74c:	e0bff915 	stw	r2,-28(fp)
    end = elem + hash->bin_size;
     750:	e0bffc17 	ldw	r2,-16(fp)
     754:	10800217 	ldw	r2,8(r2)
     758:	10800524 	muli	r2,r2,20
     75c:	e0fff917 	ldw	r3,-28(fp)
     760:	1885883a 	add	r2,r3,r2
     764:	e0bffb15 	stw	r2,-20(fp)
    while (elem != end) {
     768:	00001806 	br	7cc <lookup+0x178>
        if (elem->hash2 == h1 && elem->hash1 == h2
     76c:	e0bff917 	ldw	r2,-28(fp)
     770:	10c00417 	ldw	r3,16(r2)
     774:	e0bfff17 	ldw	r2,-4(fp)
     778:	1880111e 	bne	r3,r2,7c0 <lookup+0x16c>
     77c:	e0bff917 	ldw	r2,-28(fp)
     780:	10c00317 	ldw	r3,12(r2)
     784:	e0800217 	ldw	r2,8(fp)
     788:	18800d1e 	bne	r3,r2,7c0 <lookup+0x16c>
                && elem->hash_item.key_len == key_len
     78c:	e0bff917 	ldw	r2,-28(fp)
     790:	10c00117 	ldw	r3,4(r2)
     794:	e0bffe17 	ldw	r2,-8(fp)
     798:	1880091e 	bne	r3,r2,7c0 <lookup+0x16c>
                && memcmp(elem->hash_item.key, key, key_len) == 0) {
     79c:	e0bff917 	ldw	r2,-28(fp)
     7a0:	10800017 	ldw	r2,0(r2)
     7a4:	e1bffe17 	ldw	r6,-8(fp)
     7a8:	e17ffd17 	ldw	r5,-12(fp)
     7ac:	1009883a 	mov	r4,r2
     7b0:	00024740 	call	2474 <memcmp>
     7b4:	1000021e 	bne	r2,zero,7c0 <lookup+0x16c>
            XPROBES_SITE(cuckoo_hash, lookup_hash2, (const struct cuckoo_hash *, int),
                    (hash, 2 * hash->bin_size - (end - elem)));

            return &elem->hash_item;
     7b8:	e0bff917 	ldw	r2,-28(fp)
     7bc:	00000706 	br	7dc <lookup+0x188>
        }

        ++elem;
     7c0:	e0bff917 	ldw	r2,-28(fp)
     7c4:	10800504 	addi	r2,r2,20
     7c8:	e0bff915 	stw	r2,-28(fp)
        ++elem;
    }

    elem = bin_at(hash, (h2 & mask));
    end = elem + hash->bin_size;
    while (elem != end) {
     7cc:	e0fff917 	ldw	r3,-28(fp)
     7d0:	e0bffb17 	ldw	r2,-20(fp)
     7d4:	18bfe51e 	bne	r3,r2,76c <lookup+0x118>
    }

    XPROBES_SITE(cuckoo_hash, lookup_not_found, (const struct cuckoo_hash *, int),
            (hash, 2 * hash->bin_size));

    return NULL;
     7d8:	0005883a 	mov	r2,zero
}
     7dc:	e037883a 	mov	sp,fp
     7e0:	dfc00117 	ldw	ra,4(sp)
     7e4:	df000017 	ldw	fp,0(sp)
     7e8:	dec00204 	addi	sp,sp,8
     7ec:	f800283a 	ret

000007f0 <cuckoo_hash_lookup>:

struct cuckoo_hash_item *cuckoo_hash_lookup(const struct cuckoo_hash *hash,
        const void *key, size_t key_len) {
     7f0:	defff804 	addi	sp,sp,-32
     7f4:	dfc00715 	stw	ra,28(sp)
     7f8:	df000615 	stw	fp,24(sp)
     7fc:	df000604 	addi	fp,sp,24
     800:	e13ffd15 	stw	r4,-12(fp)
     804:	e17ffe15 	stw	r5,-8(fp)
     808:	e1bfff15 	stw	r6,-4(fp)
    uint32_t h1, h2;
    compute_hash(key, key_len, &h1, &h2);
     80c:	e0bffc04 	addi	r2,fp,-16
     810:	100f883a 	mov	r7,r2
     814:	e1bffb04 	addi	r6,fp,-20
     818:	e17fff17 	ldw	r5,-4(fp)
     81c:	e13ffe17 	ldw	r4,-8(fp)
     820:	000049c0 	call	49c <compute_hash>

    return lookup(hash, key, key_len, h1, h2);
     824:	e0fffb17 	ldw	r3,-20(fp)
     828:	e0bffc17 	ldw	r2,-16(fp)
     82c:	d8800015 	stw	r2,0(sp)
     830:	180f883a 	mov	r7,r3
     834:	e1bfff17 	ldw	r6,-4(fp)
     838:	e17ffe17 	ldw	r5,-8(fp)
     83c:	e13ffd17 	ldw	r4,-12(fp)
     840:	00006540 	call	654 <lookup>
}
     844:	e037883a 	mov	sp,fp
     848:	dfc00117 	ldw	ra,4(sp)
     84c:	df000017 	ldw	fp,0(sp)
     850:	dec00204 	addi	sp,sp,8
     854:	f800283a 	ret

00000858 <cuckoo_hash_remove>:

void cuckoo_hash_remove(struct cuckoo_hash *hash,
        const struct cuckoo_hash_item *hash_item) {
     858:	defffc04 	addi	sp,sp,-16
     85c:	df000315 	stw	fp,12(sp)
     860:	df000304 	addi	fp,sp,12
     864:	e13ffe15 	stw	r4,-8(fp)
     868:	e17fff15 	stw	r5,-4(fp)
    if (hash_item) {
     86c:	e0bfff17 	ldw	r2,-4(fp)
     870:	10000d26 	beq	r2,zero,8a8 <cuckoo_hash_remove+0x50>
        struct _cuckoo_hash_elem *elem =
     874:	e0bfff17 	ldw	r2,-4(fp)
     878:	e0bffd15 	stw	r2,-12(fp)
                ((struct _cuckoo_hash_elem *) ((char *) hash_item
                        - offsetof(struct _cuckoo_hash_elem, hash_item)));
        elem->hash1 = elem->hash2 = 0;
     87c:	e0bffd17 	ldw	r2,-12(fp)
     880:	10000415 	stw	zero,16(r2)
     884:	e0bffd17 	ldw	r2,-12(fp)
     888:	10c00417 	ldw	r3,16(r2)
     88c:	e0bffd17 	ldw	r2,-12(fp)
     890:	10c00315 	stw	r3,12(r2)
        --hash->count;
     894:	e0bffe17 	ldw	r2,-8(fp)
     898:	10800117 	ldw	r2,4(r2)
     89c:	10ffffc4 	addi	r3,r2,-1
     8a0:	e0bffe17 	ldw	r2,-8(fp)
     8a4:	10c00115 	stw	r3,4(r2)

        XPROBES_SITE(cuckoo_hash, remove, (const struct cuckoo_hash *), (hash));
    }
}
     8a8:	0001883a 	nop
     8ac:	e037883a 	mov	sp,fp
     8b0:	df000017 	ldw	fp,0(sp)
     8b4:	dec00104 	addi	sp,sp,4
     8b8:	f800283a 	ret

000008bc <grow_table>:

static bool grow_table(struct cuckoo_hash *hash) {
     8bc:	defffb04 	addi	sp,sp,-20
     8c0:	dfc00415 	stw	ra,16(sp)
     8c4:	df000315 	stw	fp,12(sp)
     8c8:	df000304 	addi	fp,sp,12
     8cc:	e13fff15 	stw	r4,-4(fp)
    size_t size = ((size_t) hash->bin_size << hash->power)
     8d0:	e0bfff17 	ldw	r2,-4(fp)
     8d4:	10c00217 	ldw	r3,8(r2)
     8d8:	e0bfff17 	ldw	r2,-4(fp)
     8dc:	10800303 	ldbu	r2,12(r2)
     8e0:	10803fcc 	andi	r2,r2,255
     8e4:	1884983a 	sll	r2,r3,r2
     8e8:	10800524 	muli	r2,r2,20
     8ec:	e0bffd15 	stw	r2,-12(fp)
            * sizeof(*hash->table);
    struct _cuckoo_hash_elem *table = realloc(hash->table, size * 2);
     8f0:	e0bfff17 	ldw	r2,-4(fp)
     8f4:	10c00017 	ldw	r3,0(r2)
     8f8:	e0bffd17 	ldw	r2,-12(fp)
     8fc:	1085883a 	add	r2,r2,r2
     900:	100b883a 	mov	r5,r2
     904:	1809883a 	mov	r4,r3
     908:	00029900 	call	2990 <realloc>
     90c:	e0bffe15 	stw	r2,-8(fp)
    if (!table)
     910:	e0bffe17 	ldw	r2,-8(fp)
     914:	1000021e 	bne	r2,zero,920 <grow_table+0x64>
        return false;
     918:	0005883a 	mov	r2,zero
     91c:	00001406 	br	970 <grow_table+0xb4>

    hash->table = table;
     920:	e0bfff17 	ldw	r2,-4(fp)
     924:	e0fffe17 	ldw	r3,-8(fp)
     928:	10c00015 	stw	r3,0(r2)
    memcpy((char *) hash->table + size, hash->table, size);
     92c:	e0bfff17 	ldw	r2,-4(fp)
     930:	10c00017 	ldw	r3,0(r2)
     934:	e0bffd17 	ldw	r2,-12(fp)
     938:	1887883a 	add	r3,r3,r2
     93c:	e0bfff17 	ldw	r2,-4(fp)
     940:	10800017 	ldw	r2,0(r2)
     944:	e1bffd17 	ldw	r6,-12(fp)
     948:	100b883a 	mov	r5,r2
     94c:	1809883a 	mov	r4,r3
     950:	00024f00 	call	24f0 <memcpy>
    ++hash->power;
     954:	e0bfff17 	ldw	r2,-4(fp)
     958:	10800303 	ldbu	r2,12(r2)
     95c:	10800044 	addi	r2,r2,1
     960:	1007883a 	mov	r3,r2
     964:	e0bfff17 	ldw	r2,-4(fp)
     968:	10c00305 	stb	r3,12(r2)

    return true;
     96c:	00800044 	movi	r2,1
}
     970:	e037883a 	mov	sp,fp
     974:	dfc00117 	ldw	ra,4(sp)
     978:	df000017 	ldw	fp,0(sp)
     97c:	dec00204 	addi	sp,sp,8
     980:	f800283a 	ret

00000984 <grow_bin_size>:

static bool grow_bin_size(struct cuckoo_hash *hash) {
     984:	defff604 	addi	sp,sp,-40
     988:	dfc00915 	stw	ra,36(sp)
     98c:	df000815 	stw	fp,32(sp)
     990:	df000804 	addi	fp,sp,32
     994:	e13fff15 	stw	r4,-4(fp)
    size_t size = ((size_t) hash->bin_size << hash->power)
     998:	e0bfff17 	ldw	r2,-4(fp)
     99c:	10c00217 	ldw	r3,8(r2)
     9a0:	e0bfff17 	ldw	r2,-4(fp)
     9a4:	10800303 	ldbu	r2,12(r2)
     9a8:	10803fcc 	andi	r2,r2,255
     9ac:	1884983a 	sll	r2,r3,r2
     9b0:	10800524 	muli	r2,r2,20
     9b4:	e0bff915 	stw	r2,-28(fp)
            * sizeof(*hash->table);
    uint32_t bin_count = 1U << hash->power;
     9b8:	e0bfff17 	ldw	r2,-4(fp)
     9bc:	10800303 	ldbu	r2,12(r2)
     9c0:	10803fcc 	andi	r2,r2,255
     9c4:	00c00044 	movi	r3,1
     9c8:	1884983a 	sll	r2,r3,r2
     9cc:	e0bffa15 	stw	r2,-24(fp)
    size_t add = bin_count * sizeof(*hash->table);
     9d0:	e0bffa17 	ldw	r2,-24(fp)
     9d4:	10800524 	muli	r2,r2,20
     9d8:	e0bffb15 	stw	r2,-20(fp)
    struct _cuckoo_hash_elem *table = realloc(hash->table, size + add);
     9dc:	e0bfff17 	ldw	r2,-4(fp)
     9e0:	11000017 	ldw	r4,0(r2)
     9e4:	e0fff917 	ldw	r3,-28(fp)
     9e8:	e0bffb17 	ldw	r2,-20(fp)
     9ec:	1885883a 	add	r2,r3,r2
     9f0:	100b883a 	mov	r5,r2
     9f4:	00029900 	call	2990 <realloc>
     9f8:	e0bffc15 	stw	r2,-16(fp)
    if (!table)
     9fc:	e0bffc17 	ldw	r2,-16(fp)
     a00:	1000021e 	bne	r2,zero,a0c <grow_bin_size+0x88>
        return false;
     a04:	0005883a 	mov	r2,zero
     a08:	00003506 	br	ae0 <grow_bin_size+0x15c>

    hash->table = table;
     a0c:	e0bfff17 	ldw	r2,-4(fp)
     a10:	e0fffc17 	ldw	r3,-16(fp)
     a14:	10c00015 	stw	r3,0(r2)
    for (uint32_t bin = bin_count - 1; bin > 0; --bin) {
     a18:	e0bffa17 	ldw	r2,-24(fp)
     a1c:	10bfffc4 	addi	r2,r2,-1
     a20:	e0bff815 	stw	r2,-32(fp)
     a24:	00001c06 	br	a98 <grow_bin_size+0x114>
        struct _cuckoo_hash_elem *old = bin_at(hash, bin);
     a28:	e17ff817 	ldw	r5,-32(fp)
     a2c:	e13fff17 	ldw	r4,-4(fp)
     a30:	00006100 	call	610 <bin_at>
     a34:	e0bffd15 	stw	r2,-12(fp)
        struct _cuckoo_hash_elem *new = old + bin;
     a38:	e0bff817 	ldw	r2,-32(fp)
     a3c:	10800524 	muli	r2,r2,20
     a40:	e0fffd17 	ldw	r3,-12(fp)
     a44:	1885883a 	add	r2,r3,r2
     a48:	e0bffe15 	stw	r2,-8(fp)
        memmove(new, old, hash->bin_size * sizeof(*hash->table));
     a4c:	e0bfff17 	ldw	r2,-4(fp)
     a50:	10800217 	ldw	r2,8(r2)
     a54:	10800524 	muli	r2,r2,20
     a58:	100d883a 	mov	r6,r2
     a5c:	e17ffd17 	ldw	r5,-12(fp)
     a60:	e13ffe17 	ldw	r4,-8(fp)
     a64:	00026380 	call	2638 <memmove>
        memset(new + hash->bin_size, 0, sizeof(*hash->table));
     a68:	e0bfff17 	ldw	r2,-4(fp)
     a6c:	10800217 	ldw	r2,8(r2)
     a70:	10800524 	muli	r2,r2,20
     a74:	e0fffe17 	ldw	r3,-8(fp)
     a78:	1885883a 	add	r2,r3,r2
     a7c:	01800504 	movi	r6,20
     a80:	000b883a 	mov	r5,zero
     a84:	1009883a 	mov	r4,r2
     a88:	00027940 	call	2794 <memset>
    struct _cuckoo_hash_elem *table = realloc(hash->table, size + add);
    if (!table)
        return false;

    hash->table = table;
    for (uint32_t bin = bin_count - 1; bin > 0; --bin) {
     a8c:	e0bff817 	ldw	r2,-32(fp)
     a90:	10bfffc4 	addi	r2,r2,-1
     a94:	e0bff815 	stw	r2,-32(fp)
     a98:	e0bff817 	ldw	r2,-32(fp)
     a9c:	103fe21e 	bne	r2,zero,a28 <grow_bin_size+0xa4>
        struct _cuckoo_hash_elem *old = bin_at(hash, bin);
        struct _cuckoo_hash_elem *new = old + bin;
        memmove(new, old, hash->bin_size * sizeof(*hash->table));
        memset(new + hash->bin_size, 0, sizeof(*hash->table));
    }
    memset(hash->table + hash->bin_size, 0, sizeof(*hash->table));
     aa0:	e0bfff17 	ldw	r2,-4(fp)
     aa4:	10c00017 	ldw	r3,0(r2)
     aa8:	e0bfff17 	ldw	r2,-4(fp)
     aac:	10800217 	ldw	r2,8(r2)
     ab0:	10800524 	muli	r2,r2,20
     ab4:	1885883a 	add	r2,r3,r2
     ab8:	01800504 	movi	r6,20
     abc:	000b883a 	mov	r5,zero
     ac0:	1009883a 	mov	r4,r2
     ac4:	00027940 	call	2794 <memset>

    ++hash->bin_size;
     ac8:	e0bfff17 	ldw	r2,-4(fp)
     acc:	10800217 	ldw	r2,8(r2)
     ad0:	10c00044 	addi	r3,r2,1
     ad4:	e0bfff17 	ldw	r2,-4(fp)
     ad8:	10c00215 	stw	r3,8(r2)

    return true;
     adc:	00800044 	movi	r2,1
}
     ae0:	e037883a 	mov	sp,fp
     ae4:	dfc00117 	ldw	ra,4(sp)
     ae8:	df000017 	ldw	fp,0(sp)
     aec:	dec00204 	addi	sp,sp,8
     af0:	f800283a 	ret

00000af4 <undo_insert>:

static bool undo_insert(struct cuckoo_hash *hash,
        struct _cuckoo_hash_elem *item, size_t max_depth, uint32_t offset,
        int phase) {
     af4:	defff004 	addi	sp,sp,-64
     af8:	dfc00f15 	stw	ra,60(sp)
     afc:	df000e15 	stw	fp,56(sp)
     b00:	df000e04 	addi	fp,sp,56
     b04:	e13ffc15 	stw	r4,-16(fp)
     b08:	e17ffd15 	stw	r5,-12(fp)
     b0c:	e1bffe15 	stw	r6,-8(fp)
     b10:	e1ffff15 	stw	r7,-4(fp)
    uint32_t mask = (1U << hash->power) - 1;
     b14:	e0bffc17 	ldw	r2,-16(fp)
     b18:	10800303 	ldbu	r2,12(r2)
     b1c:	10803fcc 	andi	r2,r2,255
     b20:	00c00044 	movi	r3,1
     b24:	1884983a 	sll	r2,r3,r2
     b28:	10bfffc4 	addi	r2,r2,-1
     b2c:	e0bff315 	stw	r2,-52(fp)

    for (size_t depth = 0; depth < max_depth * phase; ++depth) {
     b30:	e03ff215 	stw	zero,-56(fp)
     b34:	00005a06 	br	ca0 <undo_insert+0x1ac>
        if (offset-- == 0)
     b38:	e0bfff17 	ldw	r2,-4(fp)
     b3c:	10ffffc4 	addi	r3,r2,-1
     b40:	e0ffff15 	stw	r3,-4(fp)
     b44:	1000041e 	bne	r2,zero,b58 <undo_insert+0x64>
            offset = hash->bin_size - 1;
     b48:	e0bffc17 	ldw	r2,-16(fp)
     b4c:	10800217 	ldw	r2,8(r2)
     b50:	10bfffc4 	addi	r2,r2,-1
     b54:	e0bfff15 	stw	r2,-4(fp)

        uint32_t h2m = item->hash2 & mask;
     b58:	e0bffd17 	ldw	r2,-12(fp)
     b5c:	10c00417 	ldw	r3,16(r2)
     b60:	e0bff317 	ldw	r2,-52(fp)
     b64:	1884703a 	and	r2,r3,r2
     b68:	e0bff415 	stw	r2,-48(fp)
        struct _cuckoo_hash_elem *beg = bin_at(hash, h2m);
     b6c:	e17ff417 	ldw	r5,-48(fp)
     b70:	e13ffc17 	ldw	r4,-16(fp)
     b74:	00006100 	call	610 <bin_at>
     b78:	e0bff515 	stw	r2,-44(fp)

        struct _cuckoo_hash_elem victim = beg[offset];
     b7c:	e0bfff17 	ldw	r2,-4(fp)
     b80:	10800524 	muli	r2,r2,20
     b84:	e0fff517 	ldw	r3,-44(fp)
     b88:	1885883a 	add	r2,r3,r2
     b8c:	10c00017 	ldw	r3,0(r2)
     b90:	e0fff715 	stw	r3,-36(fp)
     b94:	10c00117 	ldw	r3,4(r2)
     b98:	e0fff815 	stw	r3,-32(fp)
     b9c:	10c00217 	ldw	r3,8(r2)
     ba0:	e0fff915 	stw	r3,-28(fp)
     ba4:	10c00317 	ldw	r3,12(r2)
     ba8:	e0fffa15 	stw	r3,-24(fp)
     bac:	10800417 	ldw	r2,16(r2)
     bb0:	e0bffb15 	stw	r2,-20(fp)

        beg[offset].hash_item = item->hash_item;
     bb4:	e0bfff17 	ldw	r2,-4(fp)
     bb8:	10800524 	muli	r2,r2,20
     bbc:	e0fff517 	ldw	r3,-44(fp)
     bc0:	1885883a 	add	r2,r3,r2
     bc4:	e0fffd17 	ldw	r3,-12(fp)
     bc8:	19000017 	ldw	r4,0(r3)
     bcc:	11000015 	stw	r4,0(r2)
     bd0:	19000117 	ldw	r4,4(r3)
     bd4:	11000115 	stw	r4,4(r2)
     bd8:	18c00217 	ldw	r3,8(r3)
     bdc:	10c00215 	stw	r3,8(r2)
        beg[offset].hash1 = item->hash2;
     be0:	e0bfff17 	ldw	r2,-4(fp)
     be4:	10800524 	muli	r2,r2,20
     be8:	e0fff517 	ldw	r3,-44(fp)
     bec:	1885883a 	add	r2,r3,r2
     bf0:	e0fffd17 	ldw	r3,-12(fp)
     bf4:	18c00417 	ldw	r3,16(r3)
     bf8:	10c00315 	stw	r3,12(r2)
        beg[offset].hash2 = item->hash1;
     bfc:	e0bfff17 	ldw	r2,-4(fp)
     c00:	10800524 	muli	r2,r2,20
     c04:	e0fff517 	ldw	r3,-44(fp)
     c08:	1885883a 	add	r2,r3,r2
     c0c:	e0fffd17 	ldw	r3,-12(fp)
     c10:	18c00317 	ldw	r3,12(r3)
     c14:	10c00415 	stw	r3,16(r2)

        uint32_t h1m = victim.hash1 & mask;
     c18:	e0fffa17 	ldw	r3,-24(fp)
     c1c:	e0bff317 	ldw	r2,-52(fp)
     c20:	1884703a 	and	r2,r3,r2
     c24:	e0bff615 	stw	r2,-40(fp)
        if (h1m != h2m) {
     c28:	e0fff617 	ldw	r3,-40(fp)
     c2c:	e0bff417 	ldw	r2,-48(fp)
     c30:	18800d26 	beq	r3,r2,c68 <undo_insert+0x174>
            assert(depth >= max_depth);
     c34:	e0fff217 	ldw	r3,-56(fp)
     c38:	e0bffe17 	ldw	r2,-8(fp)
     c3c:	1880082e 	bgeu	r3,r2,c60 <undo_insert+0x16c>
     c40:	01c00074 	movhi	r7,1
     c44:	39e7d504 	addi	r7,r7,-24748
     c48:	01800074 	movhi	r6,1
     c4c:	31a80304 	addi	r6,r6,-24564
     c50:	014031c4 	movi	r5,199
     c54:	01000074 	movhi	r4,1
     c58:	2127da04 	addi	r4,r4,-24728
     c5c:	00019540 	call	1954 <__assert_func>

            XPROBES_SITE(cuckoo_hash, insert_undo_inserted,
                    (const struct cuckoo_hash *, int, size_t, size_t),
                    (hash, phase, depth, max_depth));

            return true;
     c60:	00800044 	movi	r2,1
     c64:	00001406 	br	cb8 <undo_insert+0x1c4>
        }

        *item = victim;
     c68:	e0bffd17 	ldw	r2,-12(fp)
     c6c:	e0fff717 	ldw	r3,-36(fp)
     c70:	10c00015 	stw	r3,0(r2)
     c74:	e0fff817 	ldw	r3,-32(fp)
     c78:	10c00115 	stw	r3,4(r2)
     c7c:	e0fff917 	ldw	r3,-28(fp)
     c80:	10c00215 	stw	r3,8(r2)
     c84:	e0fffa17 	ldw	r3,-24(fp)
     c88:	10c00315 	stw	r3,12(r2)
     c8c:	e0fffb17 	ldw	r3,-20(fp)
     c90:	10c00415 	stw	r3,16(r2)
static bool undo_insert(struct cuckoo_hash *hash,
        struct _cuckoo_hash_elem *item, size_t max_depth, uint32_t offset,
        int phase) {
    uint32_t mask = (1U << hash->power) - 1;

    for (size_t depth = 0; depth < max_depth * phase; ++depth) {
     c94:	e0bff217 	ldw	r2,-56(fp)
     c98:	10800044 	addi	r2,r2,1
     c9c:	e0bff215 	stw	r2,-56(fp)
     ca0:	e0c00217 	ldw	r3,8(fp)
     ca4:	e0bffe17 	ldw	r2,-8(fp)
     ca8:	1885383a 	mul	r2,r3,r2
     cac:	e0fff217 	ldw	r3,-56(fp)
     cb0:	18bfa136 	bltu	r3,r2,b38 <undo_insert+0x44>

    XPROBES_SITE(cuckoo_hash, insert_undo,
            (const struct cuckoo_hash *, int, size_t),
            (hash, phase, max_depth));

    return false;
     cb4:	0005883a 	mov	r2,zero
}
     cb8:	e037883a 	mov	sp,fp
     cbc:	dfc00117 	ldw	ra,4(sp)
     cc0:	df000017 	ldw	fp,0(sp)
     cc4:	dec00204 	addi	sp,sp,8
     cc8:	f800283a 	ret

00000ccc <insert>:

static inline bool insert(struct cuckoo_hash *hash,
        struct _cuckoo_hash_elem *item) {
     ccc:	deffeb04 	addi	sp,sp,-84
     cd0:	dfc01415 	stw	ra,80(sp)
     cd4:	df001315 	stw	fp,76(sp)
     cd8:	df001304 	addi	fp,sp,76
     cdc:	e13ffe15 	stw	r4,-8(fp)
     ce0:	e17fff15 	stw	r5,-4(fp)
    size_t max_depth = (size_t) hash->power << 5;
     ce4:	e0bffe17 	ldw	r2,-8(fp)
     ce8:	10800303 	ldbu	r2,12(r2)
     cec:	10803fcc 	andi	r2,r2,255
     cf0:	1004917a 	slli	r2,r2,5
     cf4:	e0bfee15 	stw	r2,-72(fp)
    if (max_depth > (size_t) hash->bin_size << hash->power)
     cf8:	e0bffe17 	ldw	r2,-8(fp)
     cfc:	10c00217 	ldw	r3,8(r2)
     d00:	e0bffe17 	ldw	r2,-8(fp)
     d04:	10800303 	ldbu	r2,12(r2)
     d08:	10803fcc 	andi	r2,r2,255
     d0c:	1886983a 	sll	r3,r3,r2
     d10:	e0bfee17 	ldw	r2,-72(fp)
     d14:	1880072e 	bgeu	r3,r2,d34 <insert+0x68>
        max_depth = (size_t) hash->bin_size << hash->power;
     d18:	e0bffe17 	ldw	r2,-8(fp)
     d1c:	10c00217 	ldw	r3,8(r2)
     d20:	e0bffe17 	ldw	r2,-8(fp)
     d24:	10800303 	ldbu	r2,12(r2)
     d28:	10803fcc 	andi	r2,r2,255
     d2c:	1884983a 	sll	r2,r3,r2
     d30:	e0bfee15 	stw	r2,-72(fp)

    uint32_t offset = 0;
     d34:	e03fef15 	stw	zero,-68(fp)
    int phase = 0;
     d38:	e03ff015 	stw	zero,-64(fp)
    while (phase < 2) {
     d3c:	00007c06 	br	f30 <insert+0x264>
        uint32_t mask = (1U << hash->power) - 1;
     d40:	e0bffe17 	ldw	r2,-8(fp)
     d44:	10800303 	ldbu	r2,12(r2)
     d48:	10803fcc 	andi	r2,r2,255
     d4c:	00c00044 	movi	r3,1
     d50:	1884983a 	sll	r2,r3,r2
     d54:	10bfffc4 	addi	r2,r2,-1
     d58:	e0bff315 	stw	r2,-52(fp)

        for (size_t depth = 0; depth < max_depth; ++depth) {
     d5c:	e03ff115 	stw	zero,-60(fp)
     d60:	00006606 	br	efc <insert+0x230>
            uint32_t h1m = item->hash1 & mask;
     d64:	e0bfff17 	ldw	r2,-4(fp)
     d68:	10c00317 	ldw	r3,12(r2)
     d6c:	e0bff317 	ldw	r2,-52(fp)
     d70:	1884703a 	and	r2,r3,r2
     d74:	e0bff415 	stw	r2,-48(fp)
            struct _cuckoo_hash_elem *beg = bin_at(hash, h1m);
     d78:	e17ff417 	ldw	r5,-48(fp)
     d7c:	e13ffe17 	ldw	r4,-8(fp)
     d80:	00006100 	call	610 <bin_at>
     d84:	e0bff515 	stw	r2,-44(fp)
            struct _cuckoo_hash_elem *end = beg + hash->bin_size;
     d88:	e0bffe17 	ldw	r2,-8(fp)
     d8c:	10800217 	ldw	r2,8(r2)
     d90:	10800524 	muli	r2,r2,20
     d94:	e0fff517 	ldw	r3,-44(fp)
     d98:	1885883a 	add	r2,r3,r2
     d9c:	e0bff615 	stw	r2,-40(fp)
            for (struct _cuckoo_hash_elem *elem = beg; elem != end; ++elem) {
     da0:	e0bff517 	ldw	r2,-44(fp)
     da4:	e0bff215 	stw	r2,-56(fp)
     da8:	00001c06 	br	e1c <insert+0x150>
                if (elem->hash1 == elem->hash2 || (elem->hash1 & mask) != h1m) {
     dac:	e0bff217 	ldw	r2,-56(fp)
     db0:	10c00317 	ldw	r3,12(r2)
     db4:	e0bff217 	ldw	r2,-56(fp)
     db8:	10800417 	ldw	r2,16(r2)
     dbc:	18800626 	beq	r3,r2,dd8 <insert+0x10c>
     dc0:	e0bff217 	ldw	r2,-56(fp)
     dc4:	10c00317 	ldw	r3,12(r2)
     dc8:	e0bff317 	ldw	r2,-52(fp)
     dcc:	1886703a 	and	r3,r3,r2
     dd0:	e0bff417 	ldw	r2,-48(fp)
     dd4:	18800e26 	beq	r3,r2,e10 <insert+0x144>
                    *elem = *item;
     dd8:	e0bff217 	ldw	r2,-56(fp)
     ddc:	e0ffff17 	ldw	r3,-4(fp)
     de0:	19000017 	ldw	r4,0(r3)
     de4:	11000015 	stw	r4,0(r2)
     de8:	19000117 	ldw	r4,4(r3)
     dec:	11000115 	stw	r4,4(r2)
     df0:	19000217 	ldw	r4,8(r3)
     df4:	11000215 	stw	r4,8(r2)
     df8:	19000317 	ldw	r4,12(r3)
     dfc:	11000315 	stw	r4,12(r2)
     e00:	18c00417 	ldw	r3,16(r3)
     e04:	10c00415 	stw	r3,16(r2)

                    XPROBES_SITE(cuckoo_hash, insert_done,
                            (const struct cuckoo_hash *, int, size_t, size_t),
                            (hash, phase, depth, max_depth));

                    return true;
     e08:	00800044 	movi	r2,1
     e0c:	00007706 	br	fec <insert+0x320>

        for (size_t depth = 0; depth < max_depth; ++depth) {
            uint32_t h1m = item->hash1 & mask;
            struct _cuckoo_hash_elem *beg = bin_at(hash, h1m);
            struct _cuckoo_hash_elem *end = beg + hash->bin_size;
            for (struct _cuckoo_hash_elem *elem = beg; elem != end; ++elem) {
     e10:	e0bff217 	ldw	r2,-56(fp)
     e14:	10800504 	addi	r2,r2,20
     e18:	e0bff215 	stw	r2,-56(fp)
     e1c:	e0fff217 	ldw	r3,-56(fp)
     e20:	e0bff617 	ldw	r2,-40(fp)
     e24:	18bfe11e 	bne	r3,r2,dac <insert+0xe0>

                    return true;
                }
            }

            struct _cuckoo_hash_elem victim = beg[offset];
     e28:	e0bfef17 	ldw	r2,-68(fp)
     e2c:	10800524 	muli	r2,r2,20
     e30:	e0fff517 	ldw	r3,-44(fp)
     e34:	1885883a 	add	r2,r3,r2
     e38:	10c00017 	ldw	r3,0(r2)
     e3c:	e0fff915 	stw	r3,-28(fp)
     e40:	10c00117 	ldw	r3,4(r2)
     e44:	e0fffa15 	stw	r3,-24(fp)
     e48:	10c00217 	ldw	r3,8(r2)
     e4c:	e0fffb15 	stw	r3,-20(fp)
     e50:	10c00317 	ldw	r3,12(r2)
     e54:	e0fffc15 	stw	r3,-16(fp)
     e58:	10800417 	ldw	r2,16(r2)
     e5c:	e0bffd15 	stw	r2,-12(fp)

            beg[offset] = *item;
     e60:	e0bfef17 	ldw	r2,-68(fp)
     e64:	10800524 	muli	r2,r2,20
     e68:	e0fff517 	ldw	r3,-44(fp)
     e6c:	1885883a 	add	r2,r3,r2
     e70:	e0ffff17 	ldw	r3,-4(fp)
     e74:	19000017 	ldw	r4,0(r3)
     e78:	11000015 	stw	r4,0(r2)
     e7c:	19000117 	ldw	r4,4(r3)
     e80:	11000115 	stw	r4,4(r2)
     e84:	19000217 	ldw	r4,8(r3)
     e88:	11000215 	stw	r4,8(r2)
     e8c:	19000317 	ldw	r4,12(r3)
     e90:	11000315 	stw	r4,12(r2)
     e94:	18c00417 	ldw	r3,16(r3)
     e98:	10c00415 	stw	r3,16(r2)

            item->hash_item = victim.hash_item;
     e9c:	e0bfff17 	ldw	r2,-4(fp)
     ea0:	e0fff917 	ldw	r3,-28(fp)
     ea4:	10c00015 	stw	r3,0(r2)
     ea8:	e0fffa17 	ldw	r3,-24(fp)
     eac:	10c00115 	stw	r3,4(r2)
     eb0:	e0fffb17 	ldw	r3,-20(fp)
     eb4:	10c00215 	stw	r3,8(r2)
            item->hash1 = victim.hash2;
     eb8:	e0fffd17 	ldw	r3,-12(fp)
     ebc:	e0bfff17 	ldw	r2,-4(fp)
     ec0:	10c00315 	stw	r3,12(r2)
            item->hash2 = victim.hash1;
     ec4:	e0fffc17 	ldw	r3,-16(fp)
     ec8:	e0bfff17 	ldw	r2,-4(fp)
     ecc:	10c00415 	stw	r3,16(r2)

            if (++offset == hash->bin_size)
     ed0:	e0bfef17 	ldw	r2,-68(fp)
     ed4:	10800044 	addi	r2,r2,1
     ed8:	e0bfef15 	stw	r2,-68(fp)
     edc:	e0bffe17 	ldw	r2,-8(fp)
     ee0:	10800217 	ldw	r2,8(r2)
     ee4:	e0ffef17 	ldw	r3,-68(fp)
     ee8:	1880011e 	bne	r3,r2,ef0 <insert+0x224>
                offset = 0;
     eec:	e03fef15 	stw	zero,-68(fp)
    uint32_t offset = 0;
    int phase = 0;
    while (phase < 2) {
        uint32_t mask = (1U << hash->power) - 1;

        for (size_t depth = 0; depth < max_depth; ++depth) {
     ef0:	e0bff117 	ldw	r2,-60(fp)
     ef4:	10800044 	addi	r2,r2,1
     ef8:	e0bff115 	stw	r2,-60(fp)
     efc:	e0fff117 	ldw	r3,-60(fp)
     f00:	e0bfee17 	ldw	r2,-72(fp)
     f04:	18bf9736 	bltu	r3,r2,d64 <insert+0x98>

            if (++offset == hash->bin_size)
                offset = 0;
        }

        ++phase;
     f08:	e0bff017 	ldw	r2,-64(fp)
     f0c:	10800044 	addi	r2,r2,1
     f10:	e0bff015 	stw	r2,-64(fp)

        if (phase == 1) {
     f14:	e0bff017 	ldw	r2,-64(fp)
     f18:	10800058 	cmpnei	r2,r2,1
     f1c:	1000041e 	bne	r2,zero,f30 <insert+0x264>
            if (grow_table(hash))
     f20:	e13ffe17 	ldw	r4,-8(fp)
     f24:	00008bc0 	call	8bc <grow_table>
     f28:	10803fcc 	andi	r2,r2,255
     f2c:	10000426 	beq	r2,zero,f40 <insert+0x274>
    if (max_depth > (size_t) hash->bin_size << hash->power)
        max_depth = (size_t) hash->bin_size << hash->power;

    uint32_t offset = 0;
    int phase = 0;
    while (phase < 2) {
     f30:	e0bff017 	ldw	r2,-64(fp)
     f34:	10800090 	cmplti	r2,r2,2
     f38:	103f811e 	bne	r2,zero,d40 <insert+0x74>
     f3c:	00000106 	br	f44 <insert+0x278>

        if (phase == 1) {
            if (grow_table(hash))
                /* continue */;
            else
                break;
     f40:	0001883a 	nop
        }
    }

    if (grow_bin_size(hash)) {
     f44:	e13ffe17 	ldw	r4,-8(fp)
     f48:	00009840 	call	984 <grow_bin_size>
     f4c:	10803fcc 	andi	r2,r2,255
     f50:	10001f26 	beq	r2,zero,fd0 <insert+0x304>
        uint32_t mask = (1U << hash->power) - 1;
     f54:	e0bffe17 	ldw	r2,-8(fp)
     f58:	10800303 	ldbu	r2,12(r2)
     f5c:	10803fcc 	andi	r2,r2,255
     f60:	00c00044 	movi	r3,1
     f64:	1884983a 	sll	r2,r3,r2
     f68:	10bfffc4 	addi	r2,r2,-1
     f6c:	e0bff715 	stw	r2,-36(fp)
        struct _cuckoo_hash_elem *last = bin_at(hash, (item->hash1 & mask) + 1)
     f70:	e0bfff17 	ldw	r2,-4(fp)
     f74:	10c00317 	ldw	r3,12(r2)
     f78:	e0bff717 	ldw	r2,-36(fp)
     f7c:	1884703a 	and	r2,r3,r2
     f80:	10800044 	addi	r2,r2,1
     f84:	100b883a 	mov	r5,r2
     f88:	e13ffe17 	ldw	r4,-8(fp)
     f8c:	00006100 	call	610 <bin_at>
     f90:	10bffb04 	addi	r2,r2,-20
     f94:	e0bff815 	stw	r2,-32(fp)
                - 1;

        *last = *item;
     f98:	e0bff817 	ldw	r2,-32(fp)
     f9c:	e0ffff17 	ldw	r3,-4(fp)
     fa0:	19000017 	ldw	r4,0(r3)
     fa4:	11000015 	stw	r4,0(r2)
     fa8:	19000117 	ldw	r4,4(r3)
     fac:	11000115 	stw	r4,4(r2)
     fb0:	19000217 	ldw	r4,8(r3)
     fb4:	11000215 	stw	r4,8(r2)
     fb8:	19000317 	ldw	r4,12(r3)
     fbc:	11000315 	stw	r4,12(r2)
     fc0:	18c00417 	ldw	r3,16(r3)
     fc4:	10c00415 	stw	r3,16(r2)

        XPROBES_SITE(cuckoo_hash, insert_grow_bin,
                (const struct cuckoo_hash *, int, size_t),
                (hash, phase, max_depth));

        return true;
     fc8:	00800044 	movi	r2,1
     fcc:	00000706 	br	fec <insert+0x320>
    } else {
        return undo_insert(hash, item, max_depth, offset, phase);
     fd0:	e0bff017 	ldw	r2,-64(fp)
     fd4:	d8800015 	stw	r2,0(sp)
     fd8:	e1ffef17 	ldw	r7,-68(fp)
     fdc:	e1bfee17 	ldw	r6,-72(fp)
     fe0:	e17fff17 	ldw	r5,-4(fp)
     fe4:	e13ffe17 	ldw	r4,-8(fp)
     fe8:	0000af40 	call	af4 <undo_insert>
    }
}
     fec:	e037883a 	mov	sp,fp
     ff0:	dfc00117 	ldw	ra,4(sp)
     ff4:	df000017 	ldw	fp,0(sp)
     ff8:	dec00204 	addi	sp,sp,8
     ffc:	f800283a 	ret

00001000 <cuckoo_hash_insert>:

struct cuckoo_hash_item *cuckoo_hash_insert(struct cuckoo_hash *hash,
        const void *key, size_t key_len, void *value) {
    1000:	defff104 	addi	sp,sp,-60
    1004:	dfc00e15 	stw	ra,56(sp)
    1008:	df000d15 	stw	fp,52(sp)
    100c:	df000d04 	addi	fp,sp,52
    1010:	e13ffc15 	stw	r4,-16(fp)
    1014:	e17ffd15 	stw	r5,-12(fp)
    1018:	e1bffe15 	stw	r6,-8(fp)
    101c:	e1ffff15 	stw	r7,-4(fp)
    uint32_t h1, h2;
    compute_hash(key, key_len, &h1, &h2);
    1020:	e0fff604 	addi	r3,fp,-40
    1024:	e0bff504 	addi	r2,fp,-44
    1028:	180f883a 	mov	r7,r3
    102c:	100d883a 	mov	r6,r2
    1030:	e17ffe17 	ldw	r5,-8(fp)
    1034:	e13ffd17 	ldw	r4,-12(fp)
    1038:	000049c0 	call	49c <compute_hash>

    struct cuckoo_hash_item *item = lookup(hash, key, key_len, h1, h2);
    103c:	e0fff517 	ldw	r3,-44(fp)
    1040:	e0bff617 	ldw	r2,-40(fp)
    1044:	d8800015 	stw	r2,0(sp)
    1048:	180f883a 	mov	r7,r3
    104c:	e1bffe17 	ldw	r6,-8(fp)
    1050:	e17ffd17 	ldw	r5,-12(fp)
    1054:	e13ffc17 	ldw	r4,-16(fp)
    1058:	00006540 	call	654 <lookup>
    105c:	e0bff415 	stw	r2,-48(fp)
    if (item) {
    1060:	e0bff417 	ldw	r2,-48(fp)
    1064:	10000226 	beq	r2,zero,1070 <cuckoo_hash_insert+0x70>
        XPROBES_SITE(cuckoo_hash, insert_exists, (const struct cuckoo_hash *),
                (hash));

        return item;
    1068:	e0bff417 	ldw	r2,-48(fp)
    106c:	00004f06 	br	11ac <cuckoo_hash_insert+0x1ac>
    }

    struct _cuckoo_hash_elem elem = { .hash_item = { .key = key, .key_len =
    1070:	e0bffd17 	ldw	r2,-12(fp)
    1074:	e0bff715 	stw	r2,-36(fp)
    1078:	e0bffe17 	ldw	r2,-8(fp)
    107c:	e0bff815 	stw	r2,-32(fp)
    1080:	e0bfff17 	ldw	r2,-4(fp)
    1084:	e0bff915 	stw	r2,-28(fp)
    1088:	e0bff517 	ldw	r2,-44(fp)
    108c:	e0bffa15 	stw	r2,-24(fp)
    1090:	e0bff617 	ldw	r2,-40(fp)
    1094:	e0bffb15 	stw	r2,-20(fp)
            key_len, .value = value }, .hash1 = h1, .hash2 = h2 };

    if (insert(hash, &elem)) {
    1098:	e0bff704 	addi	r2,fp,-36
    109c:	100b883a 	mov	r5,r2
    10a0:	e13ffc17 	ldw	r4,-16(fp)
    10a4:	0000ccc0 	call	ccc <insert>
    10a8:	10803fcc 	andi	r2,r2,255
    10ac:	10000726 	beq	r2,zero,10cc <cuckoo_hash_insert+0xcc>
        ++hash->count;
    10b0:	e0bffc17 	ldw	r2,-16(fp)
    10b4:	10800117 	ldw	r2,4(r2)
    10b8:	10c00044 	addi	r3,r2,1
    10bc:	e0bffc17 	ldw	r2,-16(fp)
    10c0:	10c00115 	stw	r3,4(r2)

        return NULL;
    10c4:	0005883a 	mov	r2,zero
    10c8:	00003806 	br	11ac <cuckoo_hash_insert+0x1ac>
    } else {
        assert(elem.hash_item.key == key);
    10cc:	e0fff717 	ldw	r3,-36(fp)
    10d0:	e0bffd17 	ldw	r2,-12(fp)
    10d4:	18800826 	beq	r3,r2,10f8 <cuckoo_hash_insert+0xf8>
    10d8:	01c00074 	movhi	r7,1
    10dc:	39e7e104 	addi	r7,r7,-24700
    10e0:	01800074 	movhi	r6,1
    10e4:	31a80604 	addi	r6,r6,-24552
    10e8:	01404c44 	movi	r5,305
    10ec:	01000074 	movhi	r4,1
    10f0:	2127da04 	addi	r4,r4,-24728
    10f4:	00019540 	call	1954 <__assert_func>
        assert(elem.hash_item.key_len == key_len);
    10f8:	e0fff817 	ldw	r3,-32(fp)
    10fc:	e0bffe17 	ldw	r2,-8(fp)
    1100:	18800826 	beq	r3,r2,1124 <cuckoo_hash_insert+0x124>
    1104:	01c00074 	movhi	r7,1
    1108:	39e7e804 	addi	r7,r7,-24672
    110c:	01800074 	movhi	r6,1
    1110:	31a80604 	addi	r6,r6,-24552
    1114:	01404c84 	movi	r5,306
    1118:	01000074 	movhi	r4,1
    111c:	2127da04 	addi	r4,r4,-24728
    1120:	00019540 	call	1954 <__assert_func>
        assert(elem.hash_item.value == value);
    1124:	e0fff917 	ldw	r3,-28(fp)
    1128:	e0bfff17 	ldw	r2,-4(fp)
    112c:	18800826 	beq	r3,r2,1150 <cuckoo_hash_insert+0x150>
    1130:	01c00074 	movhi	r7,1
    1134:	39e7f104 	addi	r7,r7,-24636
    1138:	01800074 	movhi	r6,1
    113c:	31a80604 	addi	r6,r6,-24552
    1140:	01404cc4 	movi	r5,307
    1144:	01000074 	movhi	r4,1
    1148:	2127da04 	addi	r4,r4,-24728
    114c:	00019540 	call	1954 <__assert_func>
        assert(elem.hash1 == h1);
    1150:	e0fffa17 	ldw	r3,-24(fp)
    1154:	e0bff517 	ldw	r2,-44(fp)
    1158:	18800826 	beq	r3,r2,117c <cuckoo_hash_insert+0x17c>
    115c:	01c00074 	movhi	r7,1
    1160:	39e7f904 	addi	r7,r7,-24604
    1164:	01800074 	movhi	r6,1
    1168:	31a80604 	addi	r6,r6,-24552
    116c:	01404d04 	movi	r5,308
    1170:	01000074 	movhi	r4,1
    1174:	2127da04 	addi	r4,r4,-24728
    1178:	00019540 	call	1954 <__assert_func>
        assert(elem.hash2 == h2);
    117c:	e0fffb17 	ldw	r3,-20(fp)
    1180:	e0bff617 	ldw	r2,-40(fp)
    1184:	18800826 	beq	r3,r2,11a8 <cuckoo_hash_insert+0x1a8>
    1188:	01c00074 	movhi	r7,1
    118c:	39e7fe04 	addi	r7,r7,-24584
    1190:	01800074 	movhi	r6,1
    1194:	31a80604 	addi	r6,r6,-24552
    1198:	01404d44 	movi	r5,309
    119c:	01000074 	movhi	r4,1
    11a0:	2127da04 	addi	r4,r4,-24728
    11a4:	00019540 	call	1954 <__assert_func>

        return CUCKOO_HASH_FAILED;
    11a8:	00bfffc4 	movi	r2,-1
    }
}
    11ac:	e037883a 	mov	sp,fp
    11b0:	dfc00117 	ldw	ra,4(sp)
    11b4:	df000017 	ldw	fp,0(sp)
    11b8:	dec00204 	addi	sp,sp,8
    11bc:	f800283a 	ret

000011c0 <cuckoo_hash_next>:

struct cuckoo_hash_item *
cuckoo_hash_next(const struct cuckoo_hash *hash,
        const struct cuckoo_hash_item *hash_item) {
    11c0:	defff704 	addi	sp,sp,-36
    11c4:	dfc00815 	stw	ra,32(sp)
    11c8:	df000715 	stw	fp,28(sp)
    11cc:	df000704 	addi	fp,sp,28
    11d0:	e13ffe15 	stw	r4,-8(fp)
    11d4:	e17fff15 	stw	r5,-4(fp)
    struct _cuckoo_hash_elem *elem =
            (hash_item != NULL ?
                    ((struct _cuckoo_hash_elem *) ((char *) hash_item
                            - offsetof(struct _cuckoo_hash_elem, hash_item)) + 1) :
    11d8:	e0bfff17 	ldw	r2,-4(fp)
    11dc:	10000326 	beq	r2,zero,11ec <cuckoo_hash_next+0x2c>
    11e0:	e0bfff17 	ldw	r2,-4(fp)
    11e4:	10800504 	addi	r2,r2,20
    11e8:	00000206 	br	11f4 <cuckoo_hash_next+0x34>
    11ec:	e0bffe17 	ldw	r2,-8(fp)
    11f0:	10800017 	ldw	r2,0(r2)
}

struct cuckoo_hash_item *
cuckoo_hash_next(const struct cuckoo_hash *hash,
        const struct cuckoo_hash_item *hash_item) {
    struct _cuckoo_hash_elem *elem =
    11f4:	e0bff915 	stw	r2,-28(fp)
            (hash_item != NULL ?
                    ((struct _cuckoo_hash_elem *) ((char *) hash_item
                            - offsetof(struct _cuckoo_hash_elem, hash_item)) + 1) :
                    hash->table);

    uint32_t bin_count = 1U << hash->power;
    11f8:	e0bffe17 	ldw	r2,-8(fp)
    11fc:	10800303 	ldbu	r2,12(r2)
    1200:	10803fcc 	andi	r2,r2,255
    1204:	00c00044 	movi	r3,1
    1208:	1884983a 	sll	r2,r3,r2
    120c:	e0bffa15 	stw	r2,-24(fp)
    struct _cuckoo_hash_elem *end = bin_at(hash, bin_count);
    1210:	e17ffa17 	ldw	r5,-24(fp)
    1214:	e13ffe17 	ldw	r4,-8(fp)
    1218:	00006100 	call	610 <bin_at>
    121c:	e0bffb15 	stw	r2,-20(fp)
    uint32_t mask = bin_count - 1;
    1220:	e0bffa17 	ldw	r2,-24(fp)
    1224:	10bfffc4 	addi	r2,r2,-1
    1228:	e0bffc15 	stw	r2,-16(fp)
    while (elem != end) {
    122c:	00001c06 	br	12a0 <cuckoo_hash_next+0xe0>
        if (elem->hash1 != elem->hash2) {
    1230:	e0bff917 	ldw	r2,-28(fp)
    1234:	10c00317 	ldw	r3,12(r2)
    1238:	e0bff917 	ldw	r2,-28(fp)
    123c:	10800417 	ldw	r2,16(r2)
    1240:	18801426 	beq	r3,r2,1294 <cuckoo_hash_next+0xd4>
            /*
             Test that the element is valid, i.e., its hash1 matches
             the bin index it resides in.
             */
            struct _cuckoo_hash_elem *bin = bin_at(hash, (elem->hash1 & mask));
    1244:	e0bff917 	ldw	r2,-28(fp)
    1248:	10c00317 	ldw	r3,12(r2)
    124c:	e0bffc17 	ldw	r2,-16(fp)
    1250:	1884703a 	and	r2,r3,r2
    1254:	100b883a 	mov	r5,r2
    1258:	e13ffe17 	ldw	r4,-8(fp)
    125c:	00006100 	call	610 <bin_at>
    1260:	e0bffd15 	stw	r2,-12(fp)
            if (bin <= elem && elem < bin + hash->bin_size)
    1264:	e0bffd17 	ldw	r2,-12(fp)
    1268:	e0fff917 	ldw	r3,-28(fp)
    126c:	18800936 	bltu	r3,r2,1294 <cuckoo_hash_next+0xd4>
    1270:	e0bffe17 	ldw	r2,-8(fp)
    1274:	10800217 	ldw	r2,8(r2)
    1278:	10800524 	muli	r2,r2,20
    127c:	e0fffd17 	ldw	r3,-12(fp)
    1280:	1885883a 	add	r2,r3,r2
    1284:	e0fff917 	ldw	r3,-28(fp)
    1288:	1880022e 	bgeu	r3,r2,1294 <cuckoo_hash_next+0xd4>
                return &elem->hash_item;
    128c:	e0bff917 	ldw	r2,-28(fp)
    1290:	00000706 	br	12b0 <cuckoo_hash_next+0xf0>
        }

        ++elem;
    1294:	e0bff917 	ldw	r2,-28(fp)
    1298:	10800504 	addi	r2,r2,20
    129c:	e0bff915 	stw	r2,-28(fp)
                    hash->table);

    uint32_t bin_count = 1U << hash->power;
    struct _cuckoo_hash_elem *end = bin_at(hash, bin_count);
    uint32_t mask = bin_count - 1;
    while (elem != end) {
    12a0:	e0fff917 	ldw	r3,-28(fp)
    12a4:	e0bffb17 	ldw	r2,-20(fp)
    12a8:	18bfe11e 	bne	r3,r2,1230 <cuckoo_hash_next+0x70>
        }

        ++elem;
    }

    return NULL;
    12ac:	0005883a 	mov	r2,zero
}
    12b0:	e037883a 	mov	sp,fp
    12b4:	dfc00117 	ldw	ra,4(sp)
    12b8:	df000017 	ldw	fp,0(sp)
    12bc:	dec00204 	addi	sp,sp,8
    12c0:	f800283a 	ret

000012c4 <hashlittle2>:
 */
void hashlittle2(const void *key, /* the key to hash */
size_t length, /* length of the key */
uint32_t *pc, /* IN: primary initval, OUT: primary hash */
uint32_t *pb) /* IN: secondary initval, OUT: secondary hash */
{
    12c4:	defff604 	addi	sp,sp,-40
    12c8:	df000915 	stw	fp,36(sp)
    12cc:	df000904 	addi	fp,sp,36
    12d0:	e13ffc15 	stw	r4,-16(fp)
    12d4:	e17ffd15 	stw	r5,-12(fp)
    12d8:	e1bffe15 	stw	r6,-8(fp)
    12dc:	e1ffff15 	stw	r7,-4(fp)
        const void *ptr;
        size_t i;
    } u; /* needed for Mac Powerbook G4 */

    /* Set up the internal state */
    a = b = c = 0xdeadbeef + ((uint32_t) length) + *pc;
    12e0:	e0bffe17 	ldw	r2,-8(fp)
    12e4:	10c00017 	ldw	r3,0(r2)
    12e8:	e0bffd17 	ldw	r2,-12(fp)
    12ec:	1887883a 	add	r3,r3,r2
    12f0:	00b7abb4 	movhi	r2,57006
    12f4:	10afbbc4 	addi	r2,r2,-16657
    12f8:	1885883a 	add	r2,r3,r2
    12fc:	e0bff915 	stw	r2,-28(fp)
    1300:	e0bff917 	ldw	r2,-28(fp)
    1304:	e0bff815 	stw	r2,-32(fp)
    1308:	e0bff817 	ldw	r2,-32(fp)
    130c:	e0bff715 	stw	r2,-36(fp)
    c += *pb;
    1310:	e0bfff17 	ldw	r2,-4(fp)
    1314:	10800017 	ldw	r2,0(r2)
    1318:	e0fff917 	ldw	r3,-28(fp)
    131c:	1885883a 	add	r2,r3,r2
    1320:	e0bff915 	stw	r2,-28(fp)

    u.ptr = key;
    1324:	e0bffc17 	ldw	r2,-16(fp)
    1328:	e0bffb15 	stw	r2,-20(fp)
            *pb = b;
            return; /* zero length strings require no mixing */
        }

    } else { /* need to read the key one byte at a time */
        const uint8_t *k = (const uint8_t *) key;
    132c:	e0bffc17 	ldw	r2,-16(fp)
    1330:	e0bffa15 	stw	r2,-24(fp)

        /*--------------- all but the last block: affect some 32 bits of (a,b,c) */
        while (length > 12) {
    1334:	0000b106 	br	15fc <hashlittle2+0x338>
            a += k[0];
    1338:	e0bffa17 	ldw	r2,-24(fp)
    133c:	10800003 	ldbu	r2,0(r2)
    1340:	10803fcc 	andi	r2,r2,255
    1344:	e0fff717 	ldw	r3,-36(fp)
    1348:	1885883a 	add	r2,r3,r2
    134c:	e0bff715 	stw	r2,-36(fp)
            a += ((uint32_t) k[1]) << 8;
    1350:	e0bffa17 	ldw	r2,-24(fp)
    1354:	10800044 	addi	r2,r2,1
    1358:	10800003 	ldbu	r2,0(r2)
    135c:	10803fcc 	andi	r2,r2,255
    1360:	1004923a 	slli	r2,r2,8
    1364:	e0fff717 	ldw	r3,-36(fp)
    1368:	1885883a 	add	r2,r3,r2
    136c:	e0bff715 	stw	r2,-36(fp)
            a += ((uint32_t) k[2]) << 16;
    1370:	e0bffa17 	ldw	r2,-24(fp)
    1374:	10800084 	addi	r2,r2,2
    1378:	10800003 	ldbu	r2,0(r2)
    137c:	10803fcc 	andi	r2,r2,255
    1380:	1004943a 	slli	r2,r2,16
    1384:	e0fff717 	ldw	r3,-36(fp)
    1388:	1885883a 	add	r2,r3,r2
    138c:	e0bff715 	stw	r2,-36(fp)
            a += ((uint32_t) k[3]) << 24;
    1390:	e0bffa17 	ldw	r2,-24(fp)
    1394:	108000c4 	addi	r2,r2,3
    1398:	10800003 	ldbu	r2,0(r2)
    139c:	10803fcc 	andi	r2,r2,255
    13a0:	1004963a 	slli	r2,r2,24
    13a4:	e0fff717 	ldw	r3,-36(fp)
    13a8:	1885883a 	add	r2,r3,r2
    13ac:	e0bff715 	stw	r2,-36(fp)
            b += k[4];
    13b0:	e0bffa17 	ldw	r2,-24(fp)
    13b4:	10800104 	addi	r2,r2,4
    13b8:	10800003 	ldbu	r2,0(r2)
    13bc:	10803fcc 	andi	r2,r2,255
    13c0:	e0fff817 	ldw	r3,-32(fp)
    13c4:	1885883a 	add	r2,r3,r2
    13c8:	e0bff815 	stw	r2,-32(fp)
            b += ((uint32_t) k[5]) << 8;
    13cc:	e0bffa17 	ldw	r2,-24(fp)
    13d0:	10800144 	addi	r2,r2,5
    13d4:	10800003 	ldbu	r2,0(r2)
    13d8:	10803fcc 	andi	r2,r2,255
    13dc:	1004923a 	slli	r2,r2,8
    13e0:	e0fff817 	ldw	r3,-32(fp)
    13e4:	1885883a 	add	r2,r3,r2
    13e8:	e0bff815 	stw	r2,-32(fp)
            b += ((uint32_t) k[6]) << 16;
    13ec:	e0bffa17 	ldw	r2,-24(fp)
    13f0:	10800184 	addi	r2,r2,6
    13f4:	10800003 	ldbu	r2,0(r2)
    13f8:	10803fcc 	andi	r2,r2,255
    13fc:	1004943a 	slli	r2,r2,16
    1400:	e0fff817 	ldw	r3,-32(fp)
    1404:	1885883a 	add	r2,r3,r2
    1408:	e0bff815 	stw	r2,-32(fp)
            b += ((uint32_t) k[7]) << 24;
    140c:	e0bffa17 	ldw	r2,-24(fp)
    1410:	108001c4 	addi	r2,r2,7
    1414:	10800003 	ldbu	r2,0(r2)
    1418:	10803fcc 	andi	r2,r2,255
    141c:	1004963a 	slli	r2,r2,24
    1420:	e0fff817 	ldw	r3,-32(fp)
    1424:	1885883a 	add	r2,r3,r2
    1428:	e0bff815 	stw	r2,-32(fp)
            c += k[8];
    142c:	e0bffa17 	ldw	r2,-24(fp)
    1430:	10800204 	addi	r2,r2,8
    1434:	10800003 	ldbu	r2,0(r2)
    1438:	10803fcc 	andi	r2,r2,255
    143c:	e0fff917 	ldw	r3,-28(fp)
    1440:	1885883a 	add	r2,r3,r2
    1444:	e0bff915 	stw	r2,-28(fp)
            c += ((uint32_t) k[9]) << 8;
    1448:	e0bffa17 	ldw	r2,-24(fp)
    144c:	10800244 	addi	r2,r2,9
    1450:	10800003 	ldbu	r2,0(r2)
    1454:	10803fcc 	andi	r2,r2,255
    1458:	1004923a 	slli	r2,r2,8
    145c:	e0fff917 	ldw	r3,-28(fp)
    1460:	1885883a 	add	r2,r3,r2
    1464:	e0bff915 	stw	r2,-28(fp)
            c += ((uint32_t) k[10]) << 16;
    1468:	e0bffa17 	ldw	r2,-24(fp)
    146c:	10800284 	addi	r2,r2,10
    1470:	10800003 	ldbu	r2,0(r2)
    1474:	10803fcc 	andi	r2,r2,255
    1478:	1004943a 	slli	r2,r2,16
    147c:	e0fff917 	ldw	r3,-28(fp)
    1480:	1885883a 	add	r2,r3,r2
    1484:	e0bff915 	stw	r2,-28(fp)
            c += ((uint32_t) k[11]) << 24;
    1488:	e0bffa17 	ldw	r2,-24(fp)
    148c:	108002c4 	addi	r2,r2,11
    1490:	10800003 	ldbu	r2,0(r2)
    1494:	10803fcc 	andi	r2,r2,255
    1498:	1004963a 	slli	r2,r2,24
    149c:	e0fff917 	ldw	r3,-28(fp)
    14a0:	1885883a 	add	r2,r3,r2
    14a4:	e0bff915 	stw	r2,-28(fp)
            mix(a, b, c);
    14a8:	e0fff717 	ldw	r3,-36(fp)
    14ac:	e0bff917 	ldw	r2,-28(fp)
    14b0:	1885c83a 	sub	r2,r3,r2
    14b4:	e0bff715 	stw	r2,-36(fp)
    14b8:	e0bff917 	ldw	r2,-28(fp)
    14bc:	1004113a 	roli	r2,r2,4
    14c0:	e0fff717 	ldw	r3,-36(fp)
    14c4:	1884f03a 	xor	r2,r3,r2
    14c8:	e0bff715 	stw	r2,-36(fp)
    14cc:	e0fff917 	ldw	r3,-28(fp)
    14d0:	e0bff817 	ldw	r2,-32(fp)
    14d4:	1885883a 	add	r2,r3,r2
    14d8:	e0bff915 	stw	r2,-28(fp)
    14dc:	e0fff817 	ldw	r3,-32(fp)
    14e0:	e0bff717 	ldw	r2,-36(fp)
    14e4:	1885c83a 	sub	r2,r3,r2
    14e8:	e0bff815 	stw	r2,-32(fp)
    14ec:	e0bff717 	ldw	r2,-36(fp)
    14f0:	100411ba 	roli	r2,r2,6
    14f4:	e0fff817 	ldw	r3,-32(fp)
    14f8:	1884f03a 	xor	r2,r3,r2
    14fc:	e0bff815 	stw	r2,-32(fp)
    1500:	e0fff717 	ldw	r3,-36(fp)
    1504:	e0bff917 	ldw	r2,-28(fp)
    1508:	1885883a 	add	r2,r3,r2
    150c:	e0bff715 	stw	r2,-36(fp)
    1510:	e0fff917 	ldw	r3,-28(fp)
    1514:	e0bff817 	ldw	r2,-32(fp)
    1518:	1885c83a 	sub	r2,r3,r2
    151c:	e0bff915 	stw	r2,-28(fp)
    1520:	e0bff817 	ldw	r2,-32(fp)
    1524:	1004123a 	roli	r2,r2,8
    1528:	e0fff917 	ldw	r3,-28(fp)
    152c:	1884f03a 	xor	r2,r3,r2
    1530:	e0bff915 	stw	r2,-28(fp)
    1534:	e0fff817 	ldw	r3,-32(fp)
    1538:	e0bff717 	ldw	r2,-36(fp)
    153c:	1885883a 	add	r2,r3,r2
    1540:	e0bff815 	stw	r2,-32(fp)
    1544:	e0fff717 	ldw	r3,-36(fp)
    1548:	e0bff917 	ldw	r2,-28(fp)
    154c:	1885c83a 	sub	r2,r3,r2
    1550:	e0bff715 	stw	r2,-36(fp)
    1554:	e0bff917 	ldw	r2,-28(fp)
    1558:	1004143a 	roli	r2,r2,16
    155c:	e0fff717 	ldw	r3,-36(fp)
    1560:	1884f03a 	xor	r2,r3,r2
    1564:	e0bff715 	stw	r2,-36(fp)
    1568:	e0fff917 	ldw	r3,-28(fp)
    156c:	e0bff817 	ldw	r2,-32(fp)
    1570:	1885883a 	add	r2,r3,r2
    1574:	e0bff915 	stw	r2,-28(fp)
    1578:	e0fff817 	ldw	r3,-32(fp)
    157c:	e0bff717 	ldw	r2,-36(fp)
    1580:	1885c83a 	sub	r2,r3,r2
    1584:	e0bff815 	stw	r2,-32(fp)
    1588:	e0fff717 	ldw	r3,-36(fp)
    158c:	00800344 	movi	r2,13
    1590:	1884583a 	ror	r2,r3,r2
    1594:	e0fff817 	ldw	r3,-32(fp)
    1598:	1884f03a 	xor	r2,r3,r2
    159c:	e0bff815 	stw	r2,-32(fp)
    15a0:	e0fff717 	ldw	r3,-36(fp)
    15a4:	e0bff917 	ldw	r2,-28(fp)
    15a8:	1885883a 	add	r2,r3,r2
    15ac:	e0bff715 	stw	r2,-36(fp)
    15b0:	e0fff917 	ldw	r3,-28(fp)
    15b4:	e0bff817 	ldw	r2,-32(fp)
    15b8:	1885c83a 	sub	r2,r3,r2
    15bc:	e0bff915 	stw	r2,-28(fp)
    15c0:	e0bff817 	ldw	r2,-32(fp)
    15c4:	1004113a 	roli	r2,r2,4
    15c8:	e0fff917 	ldw	r3,-28(fp)
    15cc:	1884f03a 	xor	r2,r3,r2
    15d0:	e0bff915 	stw	r2,-28(fp)
    15d4:	e0fff817 	ldw	r3,-32(fp)
    15d8:	e0bff717 	ldw	r2,-36(fp)
    15dc:	1885883a 	add	r2,r3,r2
    15e0:	e0bff815 	stw	r2,-32(fp)
            length -= 12;
    15e4:	e0bffd17 	ldw	r2,-12(fp)
    15e8:	10bffd04 	addi	r2,r2,-12
    15ec:	e0bffd15 	stw	r2,-12(fp)
            k += 12;
    15f0:	e0bffa17 	ldw	r2,-24(fp)
    15f4:	10800304 	addi	r2,r2,12
    15f8:	e0bffa15 	stw	r2,-24(fp)

    } else { /* need to read the key one byte at a time */
        const uint8_t *k = (const uint8_t *) key;

        /*--------------- all but the last block: affect some 32 bits of (a,b,c) */
        while (length > 12) {
    15fc:	e0bffd17 	ldw	r2,-12(fp)
    1600:	10800368 	cmpgeui	r2,r2,13
    1604:	103f4c1e 	bne	r2,zero,1338 <hashlittle2+0x74>
            length -= 12;
            k += 12;
        }

        /*-------------------------------- last block: affect all 32 bits of (c) */
        switch (length) /* all the case statements fall through */
    1608:	e0bffd17 	ldw	r2,-12(fp)
    160c:	10800368 	cmpgeui	r2,r2,13
    1610:	1000781e 	bne	r2,zero,17f4 <hashlittle2+0x530>
    1614:	e0bffd17 	ldw	r2,-12(fp)
    1618:	100690ba 	slli	r3,r2,2
    161c:	00800034 	movhi	r2,0
    1620:	10858c04 	addi	r2,r2,5680
    1624:	1885883a 	add	r2,r3,r2
    1628:	10800017 	ldw	r2,0(r2)
    162c:	1000683a 	jmp	r2
    1630:	000017d8 	cmpnei	zero,zero,95
    1634:	000017bc 	xorhi	zero,zero,94
    1638:	0000179c 	xori	zero,zero,94
    163c:	0000177c 	xorhi	zero,zero,93
    1640:	0000175c 	xori	zero,zero,93
    1644:	00001740 	call	174 <alt_irq_handler+0x78>
    1648:	00001720 	cmpeqi	zero,zero,92
    164c:	00001700 	call	170 <alt_irq_handler+0x74>
    1650:	000016e0 	cmpeqi	zero,zero,91
    1654:	000016c4 	movi	zero,91
    1658:	000016a4 	muli	zero,zero,90
    165c:	00001684 	movi	zero,90
    1660:	00001664 	muli	zero,zero,89
        {
        case 12:
            c += ((uint32_t) k[11]) << 24;
    1664:	e0bffa17 	ldw	r2,-24(fp)
    1668:	108002c4 	addi	r2,r2,11
    166c:	10800003 	ldbu	r2,0(r2)
    1670:	10803fcc 	andi	r2,r2,255
    1674:	1004963a 	slli	r2,r2,24
    1678:	e0fff917 	ldw	r3,-28(fp)
    167c:	1885883a 	add	r2,r3,r2
    1680:	e0bff915 	stw	r2,-28(fp)
        case 11:
            c += ((uint32_t) k[10]) << 16;
    1684:	e0bffa17 	ldw	r2,-24(fp)
    1688:	10800284 	addi	r2,r2,10
    168c:	10800003 	ldbu	r2,0(r2)
    1690:	10803fcc 	andi	r2,r2,255
    1694:	1004943a 	slli	r2,r2,16
    1698:	e0fff917 	ldw	r3,-28(fp)
    169c:	1885883a 	add	r2,r3,r2
    16a0:	e0bff915 	stw	r2,-28(fp)
        case 10:
            c += ((uint32_t) k[9]) << 8;
    16a4:	e0bffa17 	ldw	r2,-24(fp)
    16a8:	10800244 	addi	r2,r2,9
    16ac:	10800003 	ldbu	r2,0(r2)
    16b0:	10803fcc 	andi	r2,r2,255
    16b4:	1004923a 	slli	r2,r2,8
    16b8:	e0fff917 	ldw	r3,-28(fp)
    16bc:	1885883a 	add	r2,r3,r2
    16c0:	e0bff915 	stw	r2,-28(fp)
        case 9:
            c += k[8];
    16c4:	e0bffa17 	ldw	r2,-24(fp)
    16c8:	10800204 	addi	r2,r2,8
    16cc:	10800003 	ldbu	r2,0(r2)
    16d0:	10803fcc 	andi	r2,r2,255
    16d4:	e0fff917 	ldw	r3,-28(fp)
    16d8:	1885883a 	add	r2,r3,r2
    16dc:	e0bff915 	stw	r2,-28(fp)
        case 8:
            b += ((uint32_t) k[7]) << 24;
    16e0:	e0bffa17 	ldw	r2,-24(fp)
    16e4:	108001c4 	addi	r2,r2,7
    16e8:	10800003 	ldbu	r2,0(r2)
    16ec:	10803fcc 	andi	r2,r2,255
    16f0:	1004963a 	slli	r2,r2,24
    16f4:	e0fff817 	ldw	r3,-32(fp)
    16f8:	1885883a 	add	r2,r3,r2
    16fc:	e0bff815 	stw	r2,-32(fp)
        case 7:
            b += ((uint32_t) k[6]) << 16;
    1700:	e0bffa17 	ldw	r2,-24(fp)
    1704:	10800184 	addi	r2,r2,6
    1708:	10800003 	ldbu	r2,0(r2)
    170c:	10803fcc 	andi	r2,r2,255
    1710:	1004943a 	slli	r2,r2,16
    1714:	e0fff817 	ldw	r3,-32(fp)
    1718:	1885883a 	add	r2,r3,r2
    171c:	e0bff815 	stw	r2,-32(fp)
        case 6:
            b += ((uint32_t) k[5]) << 8;
    1720:	e0bffa17 	ldw	r2,-24(fp)
    1724:	10800144 	addi	r2,r2,5
    1728:	10800003 	ldbu	r2,0(r2)
    172c:	10803fcc 	andi	r2,r2,255
    1730:	1004923a 	slli	r2,r2,8
    1734:	e0fff817 	ldw	r3,-32(fp)
    1738:	1885883a 	add	r2,r3,r2
    173c:	e0bff815 	stw	r2,-32(fp)
        case 5:
            b += k[4];
    1740:	e0bffa17 	ldw	r2,-24(fp)
    1744:	10800104 	addi	r2,r2,4
    1748:	10800003 	ldbu	r2,0(r2)
    174c:	10803fcc 	andi	r2,r2,255
    1750:	e0fff817 	ldw	r3,-32(fp)
    1754:	1885883a 	add	r2,r3,r2
    1758:	e0bff815 	stw	r2,-32(fp)
        case 4:
            a += ((uint32_t) k[3]) << 24;
    175c:	e0bffa17 	ldw	r2,-24(fp)
    1760:	108000c4 	addi	r2,r2,3
    1764:	10800003 	ldbu	r2,0(r2)
    1768:	10803fcc 	andi	r2,r2,255
    176c:	1004963a 	slli	r2,r2,24
    1770:	e0fff717 	ldw	r3,-36(fp)
    1774:	1885883a 	add	r2,r3,r2
    1778:	e0bff715 	stw	r2,-36(fp)
        case 3:
            a += ((uint32_t) k[2]) << 16;
    177c:	e0bffa17 	ldw	r2,-24(fp)
    1780:	10800084 	addi	r2,r2,2
    1784:	10800003 	ldbu	r2,0(r2)
    1788:	10803fcc 	andi	r2,r2,255
    178c:	1004943a 	slli	r2,r2,16
    1790:	e0fff717 	ldw	r3,-36(fp)
    1794:	1885883a 	add	r2,r3,r2
    1798:	e0bff715 	stw	r2,-36(fp)
        case 2:
            a += ((uint32_t) k[1]) << 8;
    179c:	e0bffa17 	ldw	r2,-24(fp)
    17a0:	10800044 	addi	r2,r2,1
    17a4:	10800003 	ldbu	r2,0(r2)
    17a8:	10803fcc 	andi	r2,r2,255
    17ac:	1004923a 	slli	r2,r2,8
    17b0:	e0fff717 	ldw	r3,-36(fp)
    17b4:	1885883a 	add	r2,r3,r2
    17b8:	e0bff715 	stw	r2,-36(fp)
        case 1:
            a += k[0];
    17bc:	e0bffa17 	ldw	r2,-24(fp)
    17c0:	10800003 	ldbu	r2,0(r2)
    17c4:	10803fcc 	andi	r2,r2,255
    17c8:	e0fff717 	ldw	r3,-36(fp)
    17cc:	1885883a 	add	r2,r3,r2
    17d0:	e0bff715 	stw	r2,-36(fp)
            break;
    17d4:	00000706 	br	17f4 <hashlittle2+0x530>
        case 0:
            *pc = c;
    17d8:	e0bffe17 	ldw	r2,-8(fp)
    17dc:	e0fff917 	ldw	r3,-28(fp)
    17e0:	10c00015 	stw	r3,0(r2)
            *pb = b;
    17e4:	e0bfff17 	ldw	r2,-4(fp)
    17e8:	e0fff817 	ldw	r3,-32(fp)
    17ec:	10c00015 	stw	r3,0(r2)
            return; /* zero length strings require no mixing */
    17f0:	00004706 	br	1910 <hashlittle2+0x64c>
        }
    }

    final(a, b, c);
    17f4:	e0fff917 	ldw	r3,-28(fp)
    17f8:	e0bff817 	ldw	r2,-32(fp)
    17fc:	1884f03a 	xor	r2,r3,r2
    1800:	e0bff915 	stw	r2,-28(fp)
    1804:	e0bff817 	ldw	r2,-32(fp)
    1808:	100413ba 	roli	r2,r2,14
    180c:	e0fff917 	ldw	r3,-28(fp)
    1810:	1885c83a 	sub	r2,r3,r2
    1814:	e0bff915 	stw	r2,-28(fp)
    1818:	e0fff717 	ldw	r3,-36(fp)
    181c:	e0bff917 	ldw	r2,-28(fp)
    1820:	1884f03a 	xor	r2,r3,r2
    1824:	e0bff715 	stw	r2,-36(fp)
    1828:	e0bff917 	ldw	r2,-28(fp)
    182c:	100412fa 	roli	r2,r2,11
    1830:	e0fff717 	ldw	r3,-36(fp)
    1834:	1885c83a 	sub	r2,r3,r2
    1838:	e0bff715 	stw	r2,-36(fp)
    183c:	e0fff817 	ldw	r3,-32(fp)
    1840:	e0bff717 	ldw	r2,-36(fp)
    1844:	1884f03a 	xor	r2,r3,r2
    1848:	e0bff815 	stw	r2,-32(fp)
    184c:	e0fff717 	ldw	r3,-36(fp)
    1850:	008001c4 	movi	r2,7
    1854:	1884583a 	ror	r2,r3,r2
    1858:	e0fff817 	ldw	r3,-32(fp)
    185c:	1885c83a 	sub	r2,r3,r2
    1860:	e0bff815 	stw	r2,-32(fp)
    1864:	e0fff917 	ldw	r3,-28(fp)
    1868:	e0bff817 	ldw	r2,-32(fp)
    186c:	1884f03a 	xor	r2,r3,r2
    1870:	e0bff915 	stw	r2,-28(fp)
    1874:	e0bff817 	ldw	r2,-32(fp)
    1878:	1004143a 	roli	r2,r2,16
    187c:	e0fff917 	ldw	r3,-28(fp)
    1880:	1885c83a 	sub	r2,r3,r2
    1884:	e0bff915 	stw	r2,-28(fp)
    1888:	e0fff717 	ldw	r3,-36(fp)
    188c:	e0bff917 	ldw	r2,-28(fp)
    1890:	1884f03a 	xor	r2,r3,r2
    1894:	e0bff715 	stw	r2,-36(fp)
    1898:	e0bff917 	ldw	r2,-28(fp)
    189c:	1004113a 	roli	r2,r2,4
    18a0:	e0fff717 	ldw	r3,-36(fp)
    18a4:	1885c83a 	sub	r2,r3,r2
    18a8:	e0bff715 	stw	r2,-36(fp)
    18ac:	e0fff817 	ldw	r3,-32(fp)
    18b0:	e0bff717 	ldw	r2,-36(fp)
    18b4:	1884f03a 	xor	r2,r3,r2
    18b8:	e0bff815 	stw	r2,-32(fp)
    18bc:	e0bff717 	ldw	r2,-36(fp)
    18c0:	100413ba 	roli	r2,r2,14
    18c4:	e0fff817 	ldw	r3,-32(fp)
    18c8:	1885c83a 	sub	r2,r3,r2
    18cc:	e0bff815 	stw	r2,-32(fp)
    18d0:	e0fff917 	ldw	r3,-28(fp)
    18d4:	e0bff817 	ldw	r2,-32(fp)
    18d8:	1884f03a 	xor	r2,r3,r2
    18dc:	e0bff915 	stw	r2,-28(fp)
    18e0:	e0fff817 	ldw	r3,-32(fp)
    18e4:	00800204 	movi	r2,8
    18e8:	1884583a 	ror	r2,r3,r2
    18ec:	e0fff917 	ldw	r3,-28(fp)
    18f0:	1885c83a 	sub	r2,r3,r2
    18f4:	e0bff915 	stw	r2,-28(fp)
    *pc = c;
    18f8:	e0bffe17 	ldw	r2,-8(fp)
    18fc:	e0fff917 	ldw	r3,-28(fp)
    1900:	10c00015 	stw	r3,0(r2)
    *pb = b;
    1904:	e0bfff17 	ldw	r2,-4(fp)
    1908:	e0fff817 	ldw	r3,-32(fp)
    190c:	10c00015 	stw	r3,0(r2)
}
    1910:	e037883a 	mov	sp,fp
    1914:	df000017 	ldw	fp,0(sp)
    1918:	dec00104 	addi	sp,sp,4
    191c:	f800283a 	ret

00001920 <main>:

#include "addr_mapping.h"

#include <stdio.h>

int main() {
    1920:	defffe04 	addi	sp,sp,-8
    1924:	dfc00115 	stw	ra,4(sp)
    1928:	df000015 	stw	fp,0(sp)
    192c:	d839883a 	mov	fp,sp
    start_mapping_listener(ADDRESS_SPAN_EXTENDER_0_WINDOWED_SLAVE_BASE,
    1930:	01420034 	movhi	r5,2048
    1934:	01020034 	movhi	r4,2048
    1938:	00002b80 	call	2b8 <start_mapping_listener>
            ADDRESS_SPAN_EXTENDER_0_WINDOWED_SLAVE_SPAN);

    return 0;
    193c:	0005883a 	mov	r2,zero
}
    1940:	e037883a 	mov	sp,fp
    1944:	dfc00117 	ldw	ra,4(sp)
    1948:	df000017 	ldw	fp,0(sp)
    194c:	dec00204 	addi	sp,sp,8
    1950:	f800283a 	ret

00001954 <__assert_func>:
    1954:	00800074 	movhi	r2,1
    1958:	10af2c04 	addi	r2,r2,-17232
    195c:	10800017 	ldw	r2,0(r2)
    1960:	defffc04 	addi	sp,sp,-16
    1964:	dfc00315 	stw	ra,12(sp)
    1968:	2015883a 	mov	r10,r4
    196c:	2811883a 	mov	r8,r5
    1970:	3813883a 	mov	r9,r7
    1974:	11000317 	ldw	r4,12(r2)
    1978:	30000c26 	beq	r6,zero,19ac <__assert_func+0x58>
    197c:	00c00074 	movhi	r3,1
    1980:	18e80b04 	addi	r3,r3,-24532
    1984:	3005883a 	mov	r2,r6
    1988:	01400074 	movhi	r5,1
    198c:	29680f04 	addi	r5,r5,-24516
    1990:	500f883a 	mov	r7,r10
    1994:	480d883a 	mov	r6,r9
    1998:	d8c00115 	stw	r3,4(sp)
    199c:	da000015 	stw	r8,0(sp)
    19a0:	d8800215 	stw	r2,8(sp)
    19a4:	0001b040 	call	1b04 <fiprintf>
    19a8:	00031900 	call	3190 <abort>
    19ac:	00c00074 	movhi	r3,1
    19b0:	18e80e04 	addi	r3,r3,-24520
    19b4:	1805883a 	mov	r2,r3
    19b8:	003ff306 	br	1988 <__assert_func+0x34>

000019bc <__assert>:
    19bc:	deffff04 	addi	sp,sp,-4
    19c0:	300f883a 	mov	r7,r6
    19c4:	000d883a 	mov	r6,zero
    19c8:	dfc00015 	stw	ra,0(sp)
    19cc:	00019540 	call	1954 <__assert_func>

000019d0 <calloc>:
    19d0:	00800074 	movhi	r2,1
    19d4:	10af2c04 	addi	r2,r2,-17232
    19d8:	280d883a 	mov	r6,r5
    19dc:	200b883a 	mov	r5,r4
    19e0:	11000017 	ldw	r4,0(r2)
    19e4:	00019e81 	jmpi	19e8 <_calloc_r>

000019e8 <_calloc_r>:
    19e8:	298b383a 	mul	r5,r5,r6
    19ec:	defffe04 	addi	sp,sp,-8
    19f0:	dfc00115 	stw	ra,4(sp)
    19f4:	dc000015 	stw	r16,0(sp)
    19f8:	0001c680 	call	1c68 <_malloc_r>
    19fc:	10002926 	beq	r2,zero,1aa4 <_calloc_r+0xbc>
    1a00:	11bfff17 	ldw	r6,-4(r2)
    1a04:	1021883a 	mov	r16,r2
    1a08:	00bfff04 	movi	r2,-4
    1a0c:	308c703a 	and	r6,r6,r2
    1a10:	00c00904 	movi	r3,36
    1a14:	308d883a 	add	r6,r6,r2
    1a18:	19801636 	bltu	r3,r6,1a74 <_calloc_r+0x8c>
    1a1c:	008004c4 	movi	r2,19
    1a20:	11800b2e 	bgeu	r2,r6,1a50 <_calloc_r+0x68>
    1a24:	80000015 	stw	zero,0(r16)
    1a28:	80000115 	stw	zero,4(r16)
    1a2c:	008006c4 	movi	r2,27
    1a30:	11801a2e 	bgeu	r2,r6,1a9c <_calloc_r+0xb4>
    1a34:	80000215 	stw	zero,8(r16)
    1a38:	80000315 	stw	zero,12(r16)
    1a3c:	30c0151e 	bne	r6,r3,1a94 <_calloc_r+0xac>
    1a40:	80000415 	stw	zero,16(r16)
    1a44:	80800604 	addi	r2,r16,24
    1a48:	80000515 	stw	zero,20(r16)
    1a4c:	00000106 	br	1a54 <_calloc_r+0x6c>
    1a50:	8005883a 	mov	r2,r16
    1a54:	10000015 	stw	zero,0(r2)
    1a58:	10000115 	stw	zero,4(r2)
    1a5c:	10000215 	stw	zero,8(r2)
    1a60:	8005883a 	mov	r2,r16
    1a64:	dfc00117 	ldw	ra,4(sp)
    1a68:	dc000017 	ldw	r16,0(sp)
    1a6c:	dec00204 	addi	sp,sp,8
    1a70:	f800283a 	ret
    1a74:	000b883a 	mov	r5,zero
    1a78:	8009883a 	mov	r4,r16
    1a7c:	00027940 	call	2794 <memset>
    1a80:	8005883a 	mov	r2,r16
    1a84:	dfc00117 	ldw	ra,4(sp)
    1a88:	dc000017 	ldw	r16,0(sp)
    1a8c:	dec00204 	addi	sp,sp,8
    1a90:	f800283a 	ret
    1a94:	80800404 	addi	r2,r16,16
    1a98:	003fee06 	br	1a54 <_calloc_r+0x6c>
    1a9c:	80800204 	addi	r2,r16,8
    1aa0:	003fec06 	br	1a54 <_calloc_r+0x6c>
    1aa4:	0005883a 	mov	r2,zero
    1aa8:	003fee06 	br	1a64 <_calloc_r+0x7c>

00001aac <exit>:
    1aac:	defffe04 	addi	sp,sp,-8
    1ab0:	000b883a 	mov	r5,zero
    1ab4:	dc000015 	stw	r16,0(sp)
    1ab8:	dfc00115 	stw	ra,4(sp)
    1abc:	2021883a 	mov	r16,r4
    1ac0:	00030100 	call	3010 <__call_exitprocs>
    1ac4:	00800074 	movhi	r2,1
    1ac8:	10af2b04 	addi	r2,r2,-17236
    1acc:	11000017 	ldw	r4,0(r2)
    1ad0:	20800f17 	ldw	r2,60(r4)
    1ad4:	10000126 	beq	r2,zero,1adc <exit+0x30>
    1ad8:	103ee83a 	callr	r2
    1adc:	8009883a 	mov	r4,r16
    1ae0:	00079200 	call	7920 <_exit>

00001ae4 <_fiprintf_r>:
    1ae4:	defffe04 	addi	sp,sp,-8
    1ae8:	dfc00015 	stw	ra,0(sp)
    1aec:	d9c00115 	stw	r7,4(sp)
    1af0:	d9c00104 	addi	r7,sp,4
    1af4:	0002ff80 	call	2ff8 <_vfiprintf_r>
    1af8:	dfc00017 	ldw	ra,0(sp)
    1afc:	dec00204 	addi	sp,sp,8
    1b00:	f800283a 	ret

00001b04 <fiprintf>:
    1b04:	defffd04 	addi	sp,sp,-12
    1b08:	2005883a 	mov	r2,r4
    1b0c:	dfc00015 	stw	ra,0(sp)
    1b10:	d9800115 	stw	r6,4(sp)
    1b14:	d9c00215 	stw	r7,8(sp)
    1b18:	00c00074 	movhi	r3,1
    1b1c:	18ef2c04 	addi	r3,r3,-17232
    1b20:	19000017 	ldw	r4,0(r3)
    1b24:	280d883a 	mov	r6,r5
    1b28:	d9c00104 	addi	r7,sp,4
    1b2c:	100b883a 	mov	r5,r2
    1b30:	0002ff80 	call	2ff8 <_vfiprintf_r>
    1b34:	dfc00017 	ldw	ra,0(sp)
    1b38:	dec00304 	addi	sp,sp,12
    1b3c:	f800283a 	ret

00001b40 <_fwrite_r>:
    1b40:	defff504 	addi	sp,sp,-44
    1b44:	dc800815 	stw	r18,32(sp)
    1b48:	39a5383a 	mul	r18,r7,r6
    1b4c:	d8800304 	addi	r2,sp,12
    1b50:	d8800015 	stw	r2,0(sp)
    1b54:	00800044 	movi	r2,1
    1b58:	dcc00915 	stw	r19,36(sp)
    1b5c:	dc400715 	stw	r17,28(sp)
    1b60:	dc000615 	stw	r16,24(sp)
    1b64:	d9400315 	stw	r5,12(sp)
    1b68:	dfc00a15 	stw	ra,40(sp)
    1b6c:	dc800415 	stw	r18,16(sp)
    1b70:	dc800215 	stw	r18,8(sp)
    1b74:	d8800115 	stw	r2,4(sp)
    1b78:	3027883a 	mov	r19,r6
    1b7c:	3821883a 	mov	r16,r7
    1b80:	2023883a 	mov	r17,r4
    1b84:	d9400b17 	ldw	r5,44(sp)
    1b88:	20000226 	beq	r4,zero,1b94 <_fwrite_r+0x54>
    1b8c:	20800e17 	ldw	r2,56(r4)
    1b90:	10001a26 	beq	r2,zero,1bfc <_fwrite_r+0xbc>
    1b94:	2880030b 	ldhu	r2,12(r5)
    1b98:	10c8000c 	andi	r3,r2,8192
    1b9c:	1800061e 	bne	r3,zero,1bb8 <_fwrite_r+0x78>
    1ba0:	29001917 	ldw	r4,100(r5)
    1ba4:	00f7ffc4 	movi	r3,-8193
    1ba8:	10880014 	ori	r2,r2,8192
    1bac:	20c6703a 	and	r3,r4,r3
    1bb0:	2880030d 	sth	r2,12(r5)
    1bb4:	28c01915 	stw	r3,100(r5)
    1bb8:	d80d883a 	mov	r6,sp
    1bbc:	8809883a 	mov	r4,r17
    1bc0:	000397c0 	call	397c <__sfvwrite_r>
    1bc4:	10000b26 	beq	r2,zero,1bf4 <_fwrite_r+0xb4>
    1bc8:	d9000217 	ldw	r4,8(sp)
    1bcc:	980b883a 	mov	r5,r19
    1bd0:	9109c83a 	sub	r4,r18,r4
    1bd4:	00076b40 	call	76b4 <__udivsi3>
    1bd8:	dfc00a17 	ldw	ra,40(sp)
    1bdc:	dcc00917 	ldw	r19,36(sp)
    1be0:	dc800817 	ldw	r18,32(sp)
    1be4:	dc400717 	ldw	r17,28(sp)
    1be8:	dc000617 	ldw	r16,24(sp)
    1bec:	dec00b04 	addi	sp,sp,44
    1bf0:	f800283a 	ret
    1bf4:	8005883a 	mov	r2,r16
    1bf8:	003ff706 	br	1bd8 <_fwrite_r+0x98>
    1bfc:	d9400515 	stw	r5,20(sp)
    1c00:	00034f80 	call	34f8 <__sinit>
    1c04:	d9400517 	ldw	r5,20(sp)
    1c08:	003fe206 	br	1b94 <_fwrite_r+0x54>

00001c0c <fwrite>:
    1c0c:	defffe04 	addi	sp,sp,-8
    1c10:	00800074 	movhi	r2,1
    1c14:	d9c00015 	stw	r7,0(sp)
    1c18:	10af2c04 	addi	r2,r2,-17232
    1c1c:	300f883a 	mov	r7,r6
    1c20:	280d883a 	mov	r6,r5
    1c24:	200b883a 	mov	r5,r4
    1c28:	11000017 	ldw	r4,0(r2)
    1c2c:	dfc00115 	stw	ra,4(sp)
    1c30:	0001b400 	call	1b40 <_fwrite_r>
    1c34:	dfc00117 	ldw	ra,4(sp)
    1c38:	dec00204 	addi	sp,sp,8
    1c3c:	f800283a 	ret

00001c40 <malloc>:
    1c40:	00800074 	movhi	r2,1
    1c44:	10af2c04 	addi	r2,r2,-17232
    1c48:	200b883a 	mov	r5,r4
    1c4c:	11000017 	ldw	r4,0(r2)
    1c50:	0001c681 	jmpi	1c68 <_malloc_r>

00001c54 <free>:
    1c54:	00800074 	movhi	r2,1
    1c58:	10af2c04 	addi	r2,r2,-17232
    1c5c:	200b883a 	mov	r5,r4
    1c60:	11000017 	ldw	r4,0(r2)
    1c64:	000366c1 	jmpi	366c <_free_r>

00001c68 <_malloc_r>:
    1c68:	defff504 	addi	sp,sp,-44
    1c6c:	dc800315 	stw	r18,12(sp)
    1c70:	dfc00a15 	stw	ra,40(sp)
    1c74:	df000915 	stw	fp,36(sp)
    1c78:	ddc00815 	stw	r23,32(sp)
    1c7c:	dd800715 	stw	r22,28(sp)
    1c80:	dd400615 	stw	r21,24(sp)
    1c84:	dd000515 	stw	r20,20(sp)
    1c88:	dcc00415 	stw	r19,16(sp)
    1c8c:	dc400215 	stw	r17,8(sp)
    1c90:	dc000115 	stw	r16,4(sp)
    1c94:	288002c4 	addi	r2,r5,11
    1c98:	00c00584 	movi	r3,22
    1c9c:	2025883a 	mov	r18,r4
    1ca0:	18807f2e 	bgeu	r3,r2,1ea0 <_malloc_r+0x238>
    1ca4:	047ffe04 	movi	r17,-8
    1ca8:	1462703a 	and	r17,r2,r17
    1cac:	8800a316 	blt	r17,zero,1f3c <_malloc_r+0x2d4>
    1cb0:	8940a236 	bltu	r17,r5,1f3c <_malloc_r+0x2d4>
    1cb4:	0007f240 	call	7f24 <__malloc_lock>
    1cb8:	00807dc4 	movi	r2,503
    1cbc:	1441e92e 	bgeu	r2,r17,2464 <_malloc_r+0x7fc>
    1cc0:	8804d27a 	srli	r2,r17,9
    1cc4:	1000a126 	beq	r2,zero,1f4c <_malloc_r+0x2e4>
    1cc8:	00c00104 	movi	r3,4
    1ccc:	18811e36 	bltu	r3,r2,2148 <_malloc_r+0x4e0>
    1cd0:	8804d1ba 	srli	r2,r17,6
    1cd4:	12000e44 	addi	r8,r2,57
    1cd8:	11c00e04 	addi	r7,r2,56
    1cdc:	4209883a 	add	r4,r8,r8
    1ce0:	04c00074 	movhi	r19,1
    1ce4:	2109883a 	add	r4,r4,r4
    1ce8:	9ce98804 	addi	r19,r19,-23008
    1cec:	2109883a 	add	r4,r4,r4
    1cf0:	9909883a 	add	r4,r19,r4
    1cf4:	24000117 	ldw	r16,4(r4)
    1cf8:	213ffe04 	addi	r4,r4,-8
    1cfc:	24009726 	beq	r4,r16,1f5c <_malloc_r+0x2f4>
    1d00:	80800117 	ldw	r2,4(r16)
    1d04:	01bfff04 	movi	r6,-4
    1d08:	014003c4 	movi	r5,15
    1d0c:	1184703a 	and	r2,r2,r6
    1d10:	1447c83a 	sub	r3,r2,r17
    1d14:	28c00716 	blt	r5,r3,1d34 <_malloc_r+0xcc>
    1d18:	1800920e 	bge	r3,zero,1f64 <_malloc_r+0x2fc>
    1d1c:	84000317 	ldw	r16,12(r16)
    1d20:	24008e26 	beq	r4,r16,1f5c <_malloc_r+0x2f4>
    1d24:	80800117 	ldw	r2,4(r16)
    1d28:	1184703a 	and	r2,r2,r6
    1d2c:	1447c83a 	sub	r3,r2,r17
    1d30:	28fff90e 	bge	r5,r3,1d18 <_malloc_r+0xb0>
    1d34:	3809883a 	mov	r4,r7
    1d38:	01800074 	movhi	r6,1
    1d3c:	9c000417 	ldw	r16,16(r19)
    1d40:	31a98804 	addi	r6,r6,-23008
    1d44:	32000204 	addi	r8,r6,8
    1d48:	82013426 	beq	r16,r8,221c <_malloc_r+0x5b4>
    1d4c:	80c00117 	ldw	r3,4(r16)
    1d50:	00bfff04 	movi	r2,-4
    1d54:	188e703a 	and	r7,r3,r2
    1d58:	3c45c83a 	sub	r2,r7,r17
    1d5c:	00c003c4 	movi	r3,15
    1d60:	18811f16 	blt	r3,r2,21e0 <_malloc_r+0x578>
    1d64:	32000515 	stw	r8,20(r6)
    1d68:	32000415 	stw	r8,16(r6)
    1d6c:	10007f0e 	bge	r2,zero,1f6c <_malloc_r+0x304>
    1d70:	00807fc4 	movi	r2,511
    1d74:	11c0fd36 	bltu	r2,r7,216c <_malloc_r+0x504>
    1d78:	3806d0fa 	srli	r3,r7,3
    1d7c:	01c00044 	movi	r7,1
    1d80:	30800117 	ldw	r2,4(r6)
    1d84:	19400044 	addi	r5,r3,1
    1d88:	294b883a 	add	r5,r5,r5
    1d8c:	1807d0ba 	srai	r3,r3,2
    1d90:	294b883a 	add	r5,r5,r5
    1d94:	294b883a 	add	r5,r5,r5
    1d98:	298b883a 	add	r5,r5,r6
    1d9c:	38c6983a 	sll	r3,r7,r3
    1da0:	29c00017 	ldw	r7,0(r5)
    1da4:	2a7ffe04 	addi	r9,r5,-8
    1da8:	1886b03a 	or	r3,r3,r2
    1dac:	82400315 	stw	r9,12(r16)
    1db0:	81c00215 	stw	r7,8(r16)
    1db4:	30c00115 	stw	r3,4(r6)
    1db8:	2c000015 	stw	r16,0(r5)
    1dbc:	3c000315 	stw	r16,12(r7)
    1dc0:	2005d0ba 	srai	r2,r4,2
    1dc4:	01400044 	movi	r5,1
    1dc8:	288a983a 	sll	r5,r5,r2
    1dcc:	19406f36 	bltu	r3,r5,1f8c <_malloc_r+0x324>
    1dd0:	28c4703a 	and	r2,r5,r3
    1dd4:	10000a1e 	bne	r2,zero,1e00 <_malloc_r+0x198>
    1dd8:	00bfff04 	movi	r2,-4
    1ddc:	294b883a 	add	r5,r5,r5
    1de0:	2088703a 	and	r4,r4,r2
    1de4:	28c4703a 	and	r2,r5,r3
    1de8:	21000104 	addi	r4,r4,4
    1dec:	1000041e 	bne	r2,zero,1e00 <_malloc_r+0x198>
    1df0:	294b883a 	add	r5,r5,r5
    1df4:	28c4703a 	and	r2,r5,r3
    1df8:	21000104 	addi	r4,r4,4
    1dfc:	103ffc26 	beq	r2,zero,1df0 <_malloc_r+0x188>
    1e00:	02bfff04 	movi	r10,-4
    1e04:	024003c4 	movi	r9,15
    1e08:	21800044 	addi	r6,r4,1
    1e0c:	318d883a 	add	r6,r6,r6
    1e10:	318d883a 	add	r6,r6,r6
    1e14:	318d883a 	add	r6,r6,r6
    1e18:	998d883a 	add	r6,r19,r6
    1e1c:	333ffe04 	addi	r12,r6,-8
    1e20:	2017883a 	mov	r11,r4
    1e24:	31800104 	addi	r6,r6,4
    1e28:	34000017 	ldw	r16,0(r6)
    1e2c:	31fffd04 	addi	r7,r6,-12
    1e30:	81c0041e 	bne	r16,r7,1e44 <_malloc_r+0x1dc>
    1e34:	0000fb06 	br	2224 <_malloc_r+0x5bc>
    1e38:	1801030e 	bge	r3,zero,2248 <_malloc_r+0x5e0>
    1e3c:	84000317 	ldw	r16,12(r16)
    1e40:	81c0f826 	beq	r16,r7,2224 <_malloc_r+0x5bc>
    1e44:	80800117 	ldw	r2,4(r16)
    1e48:	1284703a 	and	r2,r2,r10
    1e4c:	1447c83a 	sub	r3,r2,r17
    1e50:	48fff90e 	bge	r9,r3,1e38 <_malloc_r+0x1d0>
    1e54:	80800317 	ldw	r2,12(r16)
    1e58:	81000217 	ldw	r4,8(r16)
    1e5c:	89400054 	ori	r5,r17,1
    1e60:	81400115 	stw	r5,4(r16)
    1e64:	20800315 	stw	r2,12(r4)
    1e68:	11000215 	stw	r4,8(r2)
    1e6c:	8463883a 	add	r17,r16,r17
    1e70:	9c400515 	stw	r17,20(r19)
    1e74:	9c400415 	stw	r17,16(r19)
    1e78:	18800054 	ori	r2,r3,1
    1e7c:	88800115 	stw	r2,4(r17)
    1e80:	8a000315 	stw	r8,12(r17)
    1e84:	8a000215 	stw	r8,8(r17)
    1e88:	88e3883a 	add	r17,r17,r3
    1e8c:	88c00015 	stw	r3,0(r17)
    1e90:	9009883a 	mov	r4,r18
    1e94:	0007f480 	call	7f48 <__malloc_unlock>
    1e98:	80800204 	addi	r2,r16,8
    1e9c:	00001b06 	br	1f0c <_malloc_r+0x2a4>
    1ea0:	04400404 	movi	r17,16
    1ea4:	89402536 	bltu	r17,r5,1f3c <_malloc_r+0x2d4>
    1ea8:	0007f240 	call	7f24 <__malloc_lock>
    1eac:	00800184 	movi	r2,6
    1eb0:	01000084 	movi	r4,2
    1eb4:	04c00074 	movhi	r19,1
    1eb8:	1085883a 	add	r2,r2,r2
    1ebc:	9ce98804 	addi	r19,r19,-23008
    1ec0:	1085883a 	add	r2,r2,r2
    1ec4:	9885883a 	add	r2,r19,r2
    1ec8:	14000117 	ldw	r16,4(r2)
    1ecc:	10fffe04 	addi	r3,r2,-8
    1ed0:	80c0d926 	beq	r16,r3,2238 <_malloc_r+0x5d0>
    1ed4:	80c00117 	ldw	r3,4(r16)
    1ed8:	81000317 	ldw	r4,12(r16)
    1edc:	00bfff04 	movi	r2,-4
    1ee0:	1884703a 	and	r2,r3,r2
    1ee4:	81400217 	ldw	r5,8(r16)
    1ee8:	8085883a 	add	r2,r16,r2
    1eec:	10c00117 	ldw	r3,4(r2)
    1ef0:	29000315 	stw	r4,12(r5)
    1ef4:	21400215 	stw	r5,8(r4)
    1ef8:	18c00054 	ori	r3,r3,1
    1efc:	10c00115 	stw	r3,4(r2)
    1f00:	9009883a 	mov	r4,r18
    1f04:	0007f480 	call	7f48 <__malloc_unlock>
    1f08:	80800204 	addi	r2,r16,8
    1f0c:	dfc00a17 	ldw	ra,40(sp)
    1f10:	df000917 	ldw	fp,36(sp)
    1f14:	ddc00817 	ldw	r23,32(sp)
    1f18:	dd800717 	ldw	r22,28(sp)
    1f1c:	dd400617 	ldw	r21,24(sp)
    1f20:	dd000517 	ldw	r20,20(sp)
    1f24:	dcc00417 	ldw	r19,16(sp)
    1f28:	dc800317 	ldw	r18,12(sp)
    1f2c:	dc400217 	ldw	r17,8(sp)
    1f30:	dc000117 	ldw	r16,4(sp)
    1f34:	dec00b04 	addi	sp,sp,44
    1f38:	f800283a 	ret
    1f3c:	00800304 	movi	r2,12
    1f40:	90800015 	stw	r2,0(r18)
    1f44:	0005883a 	mov	r2,zero
    1f48:	003ff006 	br	1f0c <_malloc_r+0x2a4>
    1f4c:	01002004 	movi	r4,128
    1f50:	02001004 	movi	r8,64
    1f54:	01c00fc4 	movi	r7,63
    1f58:	003f6106 	br	1ce0 <_malloc_r+0x78>
    1f5c:	4009883a 	mov	r4,r8
    1f60:	003f7506 	br	1d38 <_malloc_r+0xd0>
    1f64:	81000317 	ldw	r4,12(r16)
    1f68:	003fde06 	br	1ee4 <_malloc_r+0x27c>
    1f6c:	81c5883a 	add	r2,r16,r7
    1f70:	11400117 	ldw	r5,4(r2)
    1f74:	9009883a 	mov	r4,r18
    1f78:	29400054 	ori	r5,r5,1
    1f7c:	11400115 	stw	r5,4(r2)
    1f80:	0007f480 	call	7f48 <__malloc_unlock>
    1f84:	80800204 	addi	r2,r16,8
    1f88:	003fe006 	br	1f0c <_malloc_r+0x2a4>
    1f8c:	9c000217 	ldw	r16,8(r19)
    1f90:	00bfff04 	movi	r2,-4
    1f94:	85800117 	ldw	r22,4(r16)
    1f98:	b0ac703a 	and	r22,r22,r2
    1f9c:	b4400336 	bltu	r22,r17,1fac <_malloc_r+0x344>
    1fa0:	b445c83a 	sub	r2,r22,r17
    1fa4:	00c003c4 	movi	r3,15
    1fa8:	18805d16 	blt	r3,r2,2120 <_malloc_r+0x4b8>
    1fac:	05c00074 	movhi	r23,1
    1fb0:	00800074 	movhi	r2,1
    1fb4:	10b5f904 	addi	r2,r2,-10268
    1fb8:	bdef2d04 	addi	r23,r23,-17228
    1fbc:	15400017 	ldw	r21,0(r2)
    1fc0:	b8c00017 	ldw	r3,0(r23)
    1fc4:	00bfffc4 	movi	r2,-1
    1fc8:	858d883a 	add	r6,r16,r22
    1fcc:	8d6b883a 	add	r21,r17,r21
    1fd0:	1880ea26 	beq	r3,r2,237c <_malloc_r+0x714>
    1fd4:	ad4403c4 	addi	r21,r21,4111
    1fd8:	00bc0004 	movi	r2,-4096
    1fdc:	a8aa703a 	and	r21,r21,r2
    1fe0:	a80b883a 	mov	r5,r21
    1fe4:	9009883a 	mov	r4,r18
    1fe8:	d9800015 	stw	r6,0(sp)
    1fec:	0002f0c0 	call	2f0c <_sbrk_r>
    1ff0:	1029883a 	mov	r20,r2
    1ff4:	00bfffc4 	movi	r2,-1
    1ff8:	d9800017 	ldw	r6,0(sp)
    1ffc:	a080e826 	beq	r20,r2,23a0 <_malloc_r+0x738>
    2000:	a180a636 	bltu	r20,r6,229c <_malloc_r+0x634>
    2004:	07000074 	movhi	fp,1
    2008:	e7360504 	addi	fp,fp,-10220
    200c:	e0800017 	ldw	r2,0(fp)
    2010:	a887883a 	add	r3,r21,r2
    2014:	e0c00015 	stw	r3,0(fp)
    2018:	3500e626 	beq	r6,r20,23b4 <_malloc_r+0x74c>
    201c:	b9000017 	ldw	r4,0(r23)
    2020:	00bfffc4 	movi	r2,-1
    2024:	2080ee26 	beq	r4,r2,23e0 <_malloc_r+0x778>
    2028:	a185c83a 	sub	r2,r20,r6
    202c:	10c5883a 	add	r2,r2,r3
    2030:	e0800015 	stw	r2,0(fp)
    2034:	a0c001cc 	andi	r3,r20,7
    2038:	1800bc26 	beq	r3,zero,232c <_malloc_r+0x6c4>
    203c:	a0e9c83a 	sub	r20,r20,r3
    2040:	00840204 	movi	r2,4104
    2044:	a5000204 	addi	r20,r20,8
    2048:	10c7c83a 	sub	r3,r2,r3
    204c:	a545883a 	add	r2,r20,r21
    2050:	1083ffcc 	andi	r2,r2,4095
    2054:	18abc83a 	sub	r21,r3,r2
    2058:	a80b883a 	mov	r5,r21
    205c:	9009883a 	mov	r4,r18
    2060:	0002f0c0 	call	2f0c <_sbrk_r>
    2064:	00ffffc4 	movi	r3,-1
    2068:	10c0e126 	beq	r2,r3,23f0 <_malloc_r+0x788>
    206c:	1505c83a 	sub	r2,r2,r20
    2070:	1545883a 	add	r2,r2,r21
    2074:	10800054 	ori	r2,r2,1
    2078:	e0c00017 	ldw	r3,0(fp)
    207c:	9d000215 	stw	r20,8(r19)
    2080:	a0800115 	stw	r2,4(r20)
    2084:	a8c7883a 	add	r3,r21,r3
    2088:	e0c00015 	stw	r3,0(fp)
    208c:	84c00e26 	beq	r16,r19,20c8 <_malloc_r+0x460>
    2090:	018003c4 	movi	r6,15
    2094:	3580a72e 	bgeu	r6,r22,2334 <_malloc_r+0x6cc>
    2098:	81400117 	ldw	r5,4(r16)
    209c:	013ffe04 	movi	r4,-8
    20a0:	b0bffd04 	addi	r2,r22,-12
    20a4:	1104703a 	and	r2,r2,r4
    20a8:	2900004c 	andi	r4,r5,1
    20ac:	2088b03a 	or	r4,r4,r2
    20b0:	81000115 	stw	r4,4(r16)
    20b4:	01400144 	movi	r5,5
    20b8:	8089883a 	add	r4,r16,r2
    20bc:	21400115 	stw	r5,4(r4)
    20c0:	21400215 	stw	r5,8(r4)
    20c4:	3080cd36 	bltu	r6,r2,23fc <_malloc_r+0x794>
    20c8:	00800074 	movhi	r2,1
    20cc:	10b5f804 	addi	r2,r2,-10272
    20d0:	11000017 	ldw	r4,0(r2)
    20d4:	20c0012e 	bgeu	r4,r3,20dc <_malloc_r+0x474>
    20d8:	10c00015 	stw	r3,0(r2)
    20dc:	00800074 	movhi	r2,1
    20e0:	10b5f704 	addi	r2,r2,-10276
    20e4:	11000017 	ldw	r4,0(r2)
    20e8:	9c000217 	ldw	r16,8(r19)
    20ec:	20c0012e 	bgeu	r4,r3,20f4 <_malloc_r+0x48c>
    20f0:	10c00015 	stw	r3,0(r2)
    20f4:	80c00117 	ldw	r3,4(r16)
    20f8:	00bfff04 	movi	r2,-4
    20fc:	1886703a 	and	r3,r3,r2
    2100:	1c45c83a 	sub	r2,r3,r17
    2104:	1c400236 	bltu	r3,r17,2110 <_malloc_r+0x4a8>
    2108:	00c003c4 	movi	r3,15
    210c:	18800416 	blt	r3,r2,2120 <_malloc_r+0x4b8>
    2110:	9009883a 	mov	r4,r18
    2114:	0007f480 	call	7f48 <__malloc_unlock>
    2118:	0005883a 	mov	r2,zero
    211c:	003f7b06 	br	1f0c <_malloc_r+0x2a4>
    2120:	88c00054 	ori	r3,r17,1
    2124:	80c00115 	stw	r3,4(r16)
    2128:	8463883a 	add	r17,r16,r17
    212c:	10800054 	ori	r2,r2,1
    2130:	9c400215 	stw	r17,8(r19)
    2134:	88800115 	stw	r2,4(r17)
    2138:	9009883a 	mov	r4,r18
    213c:	0007f480 	call	7f48 <__malloc_unlock>
    2140:	80800204 	addi	r2,r16,8
    2144:	003f7106 	br	1f0c <_malloc_r+0x2a4>
    2148:	00c00504 	movi	r3,20
    214c:	18804a2e 	bgeu	r3,r2,2278 <_malloc_r+0x610>
    2150:	00c01504 	movi	r3,84
    2154:	18806e36 	bltu	r3,r2,2310 <_malloc_r+0x6a8>
    2158:	8804d33a 	srli	r2,r17,12
    215c:	12001bc4 	addi	r8,r2,111
    2160:	11c01b84 	addi	r7,r2,110
    2164:	4209883a 	add	r4,r8,r8
    2168:	003edd06 	br	1ce0 <_malloc_r+0x78>
    216c:	3804d27a 	srli	r2,r7,9
    2170:	00c00104 	movi	r3,4
    2174:	1880442e 	bgeu	r3,r2,2288 <_malloc_r+0x620>
    2178:	00c00504 	movi	r3,20
    217c:	18808136 	bltu	r3,r2,2384 <_malloc_r+0x71c>
    2180:	11401704 	addi	r5,r2,92
    2184:	10c016c4 	addi	r3,r2,91
    2188:	294b883a 	add	r5,r5,r5
    218c:	294b883a 	add	r5,r5,r5
    2190:	294b883a 	add	r5,r5,r5
    2194:	994b883a 	add	r5,r19,r5
    2198:	28800017 	ldw	r2,0(r5)
    219c:	01800074 	movhi	r6,1
    21a0:	297ffe04 	addi	r5,r5,-8
    21a4:	31a98804 	addi	r6,r6,-23008
    21a8:	28806526 	beq	r5,r2,2340 <_malloc_r+0x6d8>
    21ac:	01bfff04 	movi	r6,-4
    21b0:	10c00117 	ldw	r3,4(r2)
    21b4:	1986703a 	and	r3,r3,r6
    21b8:	38c0022e 	bgeu	r7,r3,21c4 <_malloc_r+0x55c>
    21bc:	10800217 	ldw	r2,8(r2)
    21c0:	28bffb1e 	bne	r5,r2,21b0 <_malloc_r+0x548>
    21c4:	11400317 	ldw	r5,12(r2)
    21c8:	98c00117 	ldw	r3,4(r19)
    21cc:	81400315 	stw	r5,12(r16)
    21d0:	80800215 	stw	r2,8(r16)
    21d4:	2c000215 	stw	r16,8(r5)
    21d8:	14000315 	stw	r16,12(r2)
    21dc:	003ef806 	br	1dc0 <_malloc_r+0x158>
    21e0:	88c00054 	ori	r3,r17,1
    21e4:	80c00115 	stw	r3,4(r16)
    21e8:	8463883a 	add	r17,r16,r17
    21ec:	34400515 	stw	r17,20(r6)
    21f0:	34400415 	stw	r17,16(r6)
    21f4:	10c00054 	ori	r3,r2,1
    21f8:	8a000315 	stw	r8,12(r17)
    21fc:	8a000215 	stw	r8,8(r17)
    2200:	88c00115 	stw	r3,4(r17)
    2204:	88a3883a 	add	r17,r17,r2
    2208:	88800015 	stw	r2,0(r17)
    220c:	9009883a 	mov	r4,r18
    2210:	0007f480 	call	7f48 <__malloc_unlock>
    2214:	80800204 	addi	r2,r16,8
    2218:	003f3c06 	br	1f0c <_malloc_r+0x2a4>
    221c:	30c00117 	ldw	r3,4(r6)
    2220:	003ee706 	br	1dc0 <_malloc_r+0x158>
    2224:	5ac00044 	addi	r11,r11,1
    2228:	588000cc 	andi	r2,r11,3
    222c:	31800204 	addi	r6,r6,8
    2230:	103efd1e 	bne	r2,zero,1e28 <_malloc_r+0x1c0>
    2234:	00002406 	br	22c8 <_malloc_r+0x660>
    2238:	14000317 	ldw	r16,12(r2)
    223c:	143f251e 	bne	r2,r16,1ed4 <_malloc_r+0x26c>
    2240:	21000084 	addi	r4,r4,2
    2244:	003ebc06 	br	1d38 <_malloc_r+0xd0>
    2248:	8085883a 	add	r2,r16,r2
    224c:	10c00117 	ldw	r3,4(r2)
    2250:	81000317 	ldw	r4,12(r16)
    2254:	81400217 	ldw	r5,8(r16)
    2258:	18c00054 	ori	r3,r3,1
    225c:	10c00115 	stw	r3,4(r2)
    2260:	29000315 	stw	r4,12(r5)
    2264:	21400215 	stw	r5,8(r4)
    2268:	9009883a 	mov	r4,r18
    226c:	0007f480 	call	7f48 <__malloc_unlock>
    2270:	80800204 	addi	r2,r16,8
    2274:	003f2506 	br	1f0c <_malloc_r+0x2a4>
    2278:	12001704 	addi	r8,r2,92
    227c:	11c016c4 	addi	r7,r2,91
    2280:	4209883a 	add	r4,r8,r8
    2284:	003e9606 	br	1ce0 <_malloc_r+0x78>
    2288:	3804d1ba 	srli	r2,r7,6
    228c:	11400e44 	addi	r5,r2,57
    2290:	10c00e04 	addi	r3,r2,56
    2294:	294b883a 	add	r5,r5,r5
    2298:	003fbc06 	br	218c <_malloc_r+0x524>
    229c:	84ff5926 	beq	r16,r19,2004 <_malloc_r+0x39c>
    22a0:	00800074 	movhi	r2,1
    22a4:	10a98804 	addi	r2,r2,-23008
    22a8:	14000217 	ldw	r16,8(r2)
    22ac:	00bfff04 	movi	r2,-4
    22b0:	80c00117 	ldw	r3,4(r16)
    22b4:	1886703a 	and	r3,r3,r2
    22b8:	003f9106 	br	2100 <_malloc_r+0x498>
    22bc:	60800217 	ldw	r2,8(r12)
    22c0:	213fffc4 	addi	r4,r4,-1
    22c4:	1300651e 	bne	r2,r12,245c <_malloc_r+0x7f4>
    22c8:	208000cc 	andi	r2,r4,3
    22cc:	633ffe04 	addi	r12,r12,-8
    22d0:	103ffa1e 	bne	r2,zero,22bc <_malloc_r+0x654>
    22d4:	98800117 	ldw	r2,4(r19)
    22d8:	0146303a 	nor	r3,zero,r5
    22dc:	1884703a 	and	r2,r3,r2
    22e0:	98800115 	stw	r2,4(r19)
    22e4:	294b883a 	add	r5,r5,r5
    22e8:	117f2836 	bltu	r2,r5,1f8c <_malloc_r+0x324>
    22ec:	283f2726 	beq	r5,zero,1f8c <_malloc_r+0x324>
    22f0:	2886703a 	and	r3,r5,r2
    22f4:	5809883a 	mov	r4,r11
    22f8:	183ec31e 	bne	r3,zero,1e08 <_malloc_r+0x1a0>
    22fc:	294b883a 	add	r5,r5,r5
    2300:	2886703a 	and	r3,r5,r2
    2304:	21000104 	addi	r4,r4,4
    2308:	183ffc26 	beq	r3,zero,22fc <_malloc_r+0x694>
    230c:	003ebe06 	br	1e08 <_malloc_r+0x1a0>
    2310:	00c05504 	movi	r3,340
    2314:	18801236 	bltu	r3,r2,2360 <_malloc_r+0x6f8>
    2318:	8804d3fa 	srli	r2,r17,15
    231c:	12001e04 	addi	r8,r2,120
    2320:	11c01dc4 	addi	r7,r2,119
    2324:	4209883a 	add	r4,r8,r8
    2328:	003e6d06 	br	1ce0 <_malloc_r+0x78>
    232c:	00c40004 	movi	r3,4096
    2330:	003f4606 	br	204c <_malloc_r+0x3e4>
    2334:	00800044 	movi	r2,1
    2338:	a0800115 	stw	r2,4(r20)
    233c:	003f7406 	br	2110 <_malloc_r+0x4a8>
    2340:	1805d0ba 	srai	r2,r3,2
    2344:	01c00044 	movi	r7,1
    2348:	30c00117 	ldw	r3,4(r6)
    234c:	388e983a 	sll	r7,r7,r2
    2350:	2805883a 	mov	r2,r5
    2354:	38c6b03a 	or	r3,r7,r3
    2358:	30c00115 	stw	r3,4(r6)
    235c:	003f9b06 	br	21cc <_malloc_r+0x564>
    2360:	00c15504 	movi	r3,1364
    2364:	18801a36 	bltu	r3,r2,23d0 <_malloc_r+0x768>
    2368:	8804d4ba 	srli	r2,r17,18
    236c:	12001f44 	addi	r8,r2,125
    2370:	11c01f04 	addi	r7,r2,124
    2374:	4209883a 	add	r4,r8,r8
    2378:	003e5906 	br	1ce0 <_malloc_r+0x78>
    237c:	ad400404 	addi	r21,r21,16
    2380:	003f1706 	br	1fe0 <_malloc_r+0x378>
    2384:	00c01504 	movi	r3,84
    2388:	18802336 	bltu	r3,r2,2418 <_malloc_r+0x7b0>
    238c:	3804d33a 	srli	r2,r7,12
    2390:	11401bc4 	addi	r5,r2,111
    2394:	10c01b84 	addi	r3,r2,110
    2398:	294b883a 	add	r5,r5,r5
    239c:	003f7b06 	br	218c <_malloc_r+0x524>
    23a0:	9c000217 	ldw	r16,8(r19)
    23a4:	00bfff04 	movi	r2,-4
    23a8:	80c00117 	ldw	r3,4(r16)
    23ac:	1886703a 	and	r3,r3,r2
    23b0:	003f5306 	br	2100 <_malloc_r+0x498>
    23b4:	3083ffcc 	andi	r2,r6,4095
    23b8:	103f181e 	bne	r2,zero,201c <_malloc_r+0x3b4>
    23bc:	99000217 	ldw	r4,8(r19)
    23c0:	b545883a 	add	r2,r22,r21
    23c4:	10800054 	ori	r2,r2,1
    23c8:	20800115 	stw	r2,4(r4)
    23cc:	003f3e06 	br	20c8 <_malloc_r+0x460>
    23d0:	01003f84 	movi	r4,254
    23d4:	02001fc4 	movi	r8,127
    23d8:	01c01f84 	movi	r7,126
    23dc:	003e4006 	br	1ce0 <_malloc_r+0x78>
    23e0:	00800074 	movhi	r2,1
    23e4:	10af2d04 	addi	r2,r2,-17228
    23e8:	15000015 	stw	r20,0(r2)
    23ec:	003f1106 	br	2034 <_malloc_r+0x3cc>
    23f0:	00800044 	movi	r2,1
    23f4:	002b883a 	mov	r21,zero
    23f8:	003f1f06 	br	2078 <_malloc_r+0x410>
    23fc:	81400204 	addi	r5,r16,8
    2400:	9009883a 	mov	r4,r18
    2404:	000366c0 	call	366c <_free_r>
    2408:	00800074 	movhi	r2,1
    240c:	10b60504 	addi	r2,r2,-10220
    2410:	10c00017 	ldw	r3,0(r2)
    2414:	003f2c06 	br	20c8 <_malloc_r+0x460>
    2418:	00c05504 	movi	r3,340
    241c:	18800536 	bltu	r3,r2,2434 <_malloc_r+0x7cc>
    2420:	3804d3fa 	srli	r2,r7,15
    2424:	11401e04 	addi	r5,r2,120
    2428:	10c01dc4 	addi	r3,r2,119
    242c:	294b883a 	add	r5,r5,r5
    2430:	003f5606 	br	218c <_malloc_r+0x524>
    2434:	00c15504 	movi	r3,1364
    2438:	18800536 	bltu	r3,r2,2450 <_malloc_r+0x7e8>
    243c:	3804d4ba 	srli	r2,r7,18
    2440:	11401f44 	addi	r5,r2,125
    2444:	10c01f04 	addi	r3,r2,124
    2448:	294b883a 	add	r5,r5,r5
    244c:	003f4f06 	br	218c <_malloc_r+0x524>
    2450:	01403f84 	movi	r5,254
    2454:	00c01f84 	movi	r3,126
    2458:	003f4c06 	br	218c <_malloc_r+0x524>
    245c:	98800117 	ldw	r2,4(r19)
    2460:	003fa006 	br	22e4 <_malloc_r+0x67c>
    2464:	8808d0fa 	srli	r4,r17,3
    2468:	20800044 	addi	r2,r4,1
    246c:	1085883a 	add	r2,r2,r2
    2470:	003e9006 	br	1eb4 <_malloc_r+0x24c>

00002474 <memcmp>:
    2474:	01c000c4 	movi	r7,3
    2478:	3980192e 	bgeu	r7,r6,24e0 <memcmp+0x6c>
    247c:	2144b03a 	or	r2,r4,r5
    2480:	11c4703a 	and	r2,r2,r7
    2484:	10000f26 	beq	r2,zero,24c4 <memcmp+0x50>
    2488:	20800003 	ldbu	r2,0(r4)
    248c:	28c00003 	ldbu	r3,0(r5)
    2490:	10c0151e 	bne	r2,r3,24e8 <memcmp+0x74>
    2494:	31bfff84 	addi	r6,r6,-2
    2498:	01ffffc4 	movi	r7,-1
    249c:	00000406 	br	24b0 <memcmp+0x3c>
    24a0:	20800003 	ldbu	r2,0(r4)
    24a4:	28c00003 	ldbu	r3,0(r5)
    24a8:	31bfffc4 	addi	r6,r6,-1
    24ac:	10c00e1e 	bne	r2,r3,24e8 <memcmp+0x74>
    24b0:	21000044 	addi	r4,r4,1
    24b4:	29400044 	addi	r5,r5,1
    24b8:	31fff91e 	bne	r6,r7,24a0 <memcmp+0x2c>
    24bc:	0005883a 	mov	r2,zero
    24c0:	f800283a 	ret
    24c4:	20c00017 	ldw	r3,0(r4)
    24c8:	28800017 	ldw	r2,0(r5)
    24cc:	18bfee1e 	bne	r3,r2,2488 <memcmp+0x14>
    24d0:	31bfff04 	addi	r6,r6,-4
    24d4:	21000104 	addi	r4,r4,4
    24d8:	29400104 	addi	r5,r5,4
    24dc:	39bff936 	bltu	r7,r6,24c4 <memcmp+0x50>
    24e0:	303fe91e 	bne	r6,zero,2488 <memcmp+0x14>
    24e4:	003ff506 	br	24bc <memcmp+0x48>
    24e8:	10c5c83a 	sub	r2,r2,r3
    24ec:	f800283a 	ret

000024f0 <memcpy>:
    24f0:	defffd04 	addi	sp,sp,-12
    24f4:	dfc00215 	stw	ra,8(sp)
    24f8:	dc400115 	stw	r17,4(sp)
    24fc:	dc000015 	stw	r16,0(sp)
    2500:	00c003c4 	movi	r3,15
    2504:	2005883a 	mov	r2,r4
    2508:	1980452e 	bgeu	r3,r6,2620 <memcpy+0x130>
    250c:	2906b03a 	or	r3,r5,r4
    2510:	18c000cc 	andi	r3,r3,3
    2514:	1800441e 	bne	r3,zero,2628 <memcpy+0x138>
    2518:	347ffc04 	addi	r17,r6,-16
    251c:	8822d13a 	srli	r17,r17,4
    2520:	28c00104 	addi	r3,r5,4
    2524:	23400104 	addi	r13,r4,4
    2528:	8820913a 	slli	r16,r17,4
    252c:	2b000204 	addi	r12,r5,8
    2530:	22c00204 	addi	r11,r4,8
    2534:	84000504 	addi	r16,r16,20
    2538:	2a800304 	addi	r10,r5,12
    253c:	22400304 	addi	r9,r4,12
    2540:	2c21883a 	add	r16,r5,r16
    2544:	2811883a 	mov	r8,r5
    2548:	200f883a 	mov	r7,r4
    254c:	41000017 	ldw	r4,0(r8)
    2550:	1fc00017 	ldw	ra,0(r3)
    2554:	63c00017 	ldw	r15,0(r12)
    2558:	39000015 	stw	r4,0(r7)
    255c:	53800017 	ldw	r14,0(r10)
    2560:	6fc00015 	stw	ra,0(r13)
    2564:	5bc00015 	stw	r15,0(r11)
    2568:	4b800015 	stw	r14,0(r9)
    256c:	18c00404 	addi	r3,r3,16
    2570:	39c00404 	addi	r7,r7,16
    2574:	42000404 	addi	r8,r8,16
    2578:	6b400404 	addi	r13,r13,16
    257c:	63000404 	addi	r12,r12,16
    2580:	5ac00404 	addi	r11,r11,16
    2584:	52800404 	addi	r10,r10,16
    2588:	4a400404 	addi	r9,r9,16
    258c:	1c3fef1e 	bne	r3,r16,254c <memcpy+0x5c>
    2590:	89c00044 	addi	r7,r17,1
    2594:	380e913a 	slli	r7,r7,4
    2598:	310003cc 	andi	r4,r6,15
    259c:	02c000c4 	movi	r11,3
    25a0:	11c7883a 	add	r3,r2,r7
    25a4:	29cb883a 	add	r5,r5,r7
    25a8:	5900212e 	bgeu	r11,r4,2630 <memcpy+0x140>
    25ac:	1813883a 	mov	r9,r3
    25b0:	2811883a 	mov	r8,r5
    25b4:	200f883a 	mov	r7,r4
    25b8:	42800017 	ldw	r10,0(r8)
    25bc:	4a400104 	addi	r9,r9,4
    25c0:	39ffff04 	addi	r7,r7,-4
    25c4:	4abfff15 	stw	r10,-4(r9)
    25c8:	42000104 	addi	r8,r8,4
    25cc:	59fffa36 	bltu	r11,r7,25b8 <memcpy+0xc8>
    25d0:	213fff04 	addi	r4,r4,-4
    25d4:	2008d0ba 	srli	r4,r4,2
    25d8:	318000cc 	andi	r6,r6,3
    25dc:	21000044 	addi	r4,r4,1
    25e0:	2109883a 	add	r4,r4,r4
    25e4:	2109883a 	add	r4,r4,r4
    25e8:	1907883a 	add	r3,r3,r4
    25ec:	290b883a 	add	r5,r5,r4
    25f0:	30000626 	beq	r6,zero,260c <memcpy+0x11c>
    25f4:	198d883a 	add	r6,r3,r6
    25f8:	29c00003 	ldbu	r7,0(r5)
    25fc:	18c00044 	addi	r3,r3,1
    2600:	29400044 	addi	r5,r5,1
    2604:	19ffffc5 	stb	r7,-1(r3)
    2608:	19bffb1e 	bne	r3,r6,25f8 <memcpy+0x108>
    260c:	dfc00217 	ldw	ra,8(sp)
    2610:	dc400117 	ldw	r17,4(sp)
    2614:	dc000017 	ldw	r16,0(sp)
    2618:	dec00304 	addi	sp,sp,12
    261c:	f800283a 	ret
    2620:	2007883a 	mov	r3,r4
    2624:	003ff206 	br	25f0 <memcpy+0x100>
    2628:	2007883a 	mov	r3,r4
    262c:	003ff106 	br	25f4 <memcpy+0x104>
    2630:	200d883a 	mov	r6,r4
    2634:	003fee06 	br	25f0 <memcpy+0x100>

00002638 <memmove>:
    2638:	2005883a 	mov	r2,r4
    263c:	29000b2e 	bgeu	r5,r4,266c <memmove+0x34>
    2640:	298f883a 	add	r7,r5,r6
    2644:	21c0092e 	bgeu	r4,r7,266c <memmove+0x34>
    2648:	2187883a 	add	r3,r4,r6
    264c:	198bc83a 	sub	r5,r3,r6
    2650:	30004826 	beq	r6,zero,2774 <memmove+0x13c>
    2654:	39ffffc4 	addi	r7,r7,-1
    2658:	39000003 	ldbu	r4,0(r7)
    265c:	18ffffc4 	addi	r3,r3,-1
    2660:	19000005 	stb	r4,0(r3)
    2664:	28fffb1e 	bne	r5,r3,2654 <memmove+0x1c>
    2668:	f800283a 	ret
    266c:	00c003c4 	movi	r3,15
    2670:	1980412e 	bgeu	r3,r6,2778 <memmove+0x140>
    2674:	2886b03a 	or	r3,r5,r2
    2678:	18c000cc 	andi	r3,r3,3
    267c:	1800401e 	bne	r3,zero,2780 <memmove+0x148>
    2680:	33fffc04 	addi	r15,r6,-16
    2684:	781ed13a 	srli	r15,r15,4
    2688:	28c00104 	addi	r3,r5,4
    268c:	13400104 	addi	r13,r2,4
    2690:	781c913a 	slli	r14,r15,4
    2694:	2b000204 	addi	r12,r5,8
    2698:	12c00204 	addi	r11,r2,8
    269c:	73800504 	addi	r14,r14,20
    26a0:	2a800304 	addi	r10,r5,12
    26a4:	12400304 	addi	r9,r2,12
    26a8:	2b9d883a 	add	r14,r5,r14
    26ac:	2811883a 	mov	r8,r5
    26b0:	100f883a 	mov	r7,r2
    26b4:	41000017 	ldw	r4,0(r8)
    26b8:	39c00404 	addi	r7,r7,16
    26bc:	18c00404 	addi	r3,r3,16
    26c0:	393ffc15 	stw	r4,-16(r7)
    26c4:	193ffc17 	ldw	r4,-16(r3)
    26c8:	6b400404 	addi	r13,r13,16
    26cc:	5ac00404 	addi	r11,r11,16
    26d0:	693ffc15 	stw	r4,-16(r13)
    26d4:	61000017 	ldw	r4,0(r12)
    26d8:	4a400404 	addi	r9,r9,16
    26dc:	42000404 	addi	r8,r8,16
    26e0:	593ffc15 	stw	r4,-16(r11)
    26e4:	51000017 	ldw	r4,0(r10)
    26e8:	63000404 	addi	r12,r12,16
    26ec:	52800404 	addi	r10,r10,16
    26f0:	493ffc15 	stw	r4,-16(r9)
    26f4:	1bbfef1e 	bne	r3,r14,26b4 <memmove+0x7c>
    26f8:	79000044 	addi	r4,r15,1
    26fc:	2008913a 	slli	r4,r4,4
    2700:	328003cc 	andi	r10,r6,15
    2704:	02c000c4 	movi	r11,3
    2708:	1107883a 	add	r3,r2,r4
    270c:	290b883a 	add	r5,r5,r4
    2710:	5a801e2e 	bgeu	r11,r10,278c <memmove+0x154>
    2714:	1813883a 	mov	r9,r3
    2718:	2811883a 	mov	r8,r5
    271c:	500f883a 	mov	r7,r10
    2720:	41000017 	ldw	r4,0(r8)
    2724:	4a400104 	addi	r9,r9,4
    2728:	39ffff04 	addi	r7,r7,-4
    272c:	493fff15 	stw	r4,-4(r9)
    2730:	42000104 	addi	r8,r8,4
    2734:	59fffa36 	bltu	r11,r7,2720 <memmove+0xe8>
    2738:	513fff04 	addi	r4,r10,-4
    273c:	2008d0ba 	srli	r4,r4,2
    2740:	318000cc 	andi	r6,r6,3
    2744:	21000044 	addi	r4,r4,1
    2748:	2109883a 	add	r4,r4,r4
    274c:	2109883a 	add	r4,r4,r4
    2750:	1907883a 	add	r3,r3,r4
    2754:	290b883a 	add	r5,r5,r4
    2758:	30000b26 	beq	r6,zero,2788 <memmove+0x150>
    275c:	198d883a 	add	r6,r3,r6
    2760:	29c00003 	ldbu	r7,0(r5)
    2764:	18c00044 	addi	r3,r3,1
    2768:	29400044 	addi	r5,r5,1
    276c:	19ffffc5 	stb	r7,-1(r3)
    2770:	19bffb1e 	bne	r3,r6,2760 <memmove+0x128>
    2774:	f800283a 	ret
    2778:	1007883a 	mov	r3,r2
    277c:	003ff606 	br	2758 <memmove+0x120>
    2780:	1007883a 	mov	r3,r2
    2784:	003ff506 	br	275c <memmove+0x124>
    2788:	f800283a 	ret
    278c:	500d883a 	mov	r6,r10
    2790:	003ff106 	br	2758 <memmove+0x120>

00002794 <memset>:
    2794:	20c000cc 	andi	r3,r4,3
    2798:	2005883a 	mov	r2,r4
    279c:	18004426 	beq	r3,zero,28b0 <memset+0x11c>
    27a0:	31ffffc4 	addi	r7,r6,-1
    27a4:	30004026 	beq	r6,zero,28a8 <memset+0x114>
    27a8:	2813883a 	mov	r9,r5
    27ac:	200d883a 	mov	r6,r4
    27b0:	2007883a 	mov	r3,r4
    27b4:	00000406 	br	27c8 <memset+0x34>
    27b8:	3a3fffc4 	addi	r8,r7,-1
    27bc:	31800044 	addi	r6,r6,1
    27c0:	38003926 	beq	r7,zero,28a8 <memset+0x114>
    27c4:	400f883a 	mov	r7,r8
    27c8:	18c00044 	addi	r3,r3,1
    27cc:	32400005 	stb	r9,0(r6)
    27d0:	1a0000cc 	andi	r8,r3,3
    27d4:	403ff81e 	bne	r8,zero,27b8 <memset+0x24>
    27d8:	010000c4 	movi	r4,3
    27dc:	21c02d2e 	bgeu	r4,r7,2894 <memset+0x100>
    27e0:	29003fcc 	andi	r4,r5,255
    27e4:	200c923a 	slli	r6,r4,8
    27e8:	3108b03a 	or	r4,r6,r4
    27ec:	200c943a 	slli	r6,r4,16
    27f0:	218cb03a 	or	r6,r4,r6
    27f4:	010003c4 	movi	r4,15
    27f8:	21c0182e 	bgeu	r4,r7,285c <memset+0xc8>
    27fc:	3b3ffc04 	addi	r12,r7,-16
    2800:	6018d13a 	srli	r12,r12,4
    2804:	1a000104 	addi	r8,r3,4
    2808:	1ac00204 	addi	r11,r3,8
    280c:	6008913a 	slli	r4,r12,4
    2810:	1a800304 	addi	r10,r3,12
    2814:	1813883a 	mov	r9,r3
    2818:	21000504 	addi	r4,r4,20
    281c:	1909883a 	add	r4,r3,r4
    2820:	49800015 	stw	r6,0(r9)
    2824:	41800015 	stw	r6,0(r8)
    2828:	59800015 	stw	r6,0(r11)
    282c:	51800015 	stw	r6,0(r10)
    2830:	42000404 	addi	r8,r8,16
    2834:	4a400404 	addi	r9,r9,16
    2838:	5ac00404 	addi	r11,r11,16
    283c:	52800404 	addi	r10,r10,16
    2840:	413ff71e 	bne	r8,r4,2820 <memset+0x8c>
    2844:	63000044 	addi	r12,r12,1
    2848:	6018913a 	slli	r12,r12,4
    284c:	39c003cc 	andi	r7,r7,15
    2850:	010000c4 	movi	r4,3
    2854:	1b07883a 	add	r3,r3,r12
    2858:	21c00e2e 	bgeu	r4,r7,2894 <memset+0x100>
    285c:	1813883a 	mov	r9,r3
    2860:	3811883a 	mov	r8,r7
    2864:	010000c4 	movi	r4,3
    2868:	49800015 	stw	r6,0(r9)
    286c:	423fff04 	addi	r8,r8,-4
    2870:	4a400104 	addi	r9,r9,4
    2874:	223ffc36 	bltu	r4,r8,2868 <memset+0xd4>
    2878:	393fff04 	addi	r4,r7,-4
    287c:	2008d0ba 	srli	r4,r4,2
    2880:	39c000cc 	andi	r7,r7,3
    2884:	21000044 	addi	r4,r4,1
    2888:	2109883a 	add	r4,r4,r4
    288c:	2109883a 	add	r4,r4,r4
    2890:	1907883a 	add	r3,r3,r4
    2894:	38000526 	beq	r7,zero,28ac <memset+0x118>
    2898:	19cf883a 	add	r7,r3,r7
    289c:	19400005 	stb	r5,0(r3)
    28a0:	18c00044 	addi	r3,r3,1
    28a4:	38fffd1e 	bne	r7,r3,289c <memset+0x108>
    28a8:	f800283a 	ret
    28ac:	f800283a 	ret
    28b0:	2007883a 	mov	r3,r4
    28b4:	300f883a 	mov	r7,r6
    28b8:	003fc706 	br	27d8 <memset+0x44>

000028bc <_puts_r>:
    28bc:	defff604 	addi	sp,sp,-40
    28c0:	dc000715 	stw	r16,28(sp)
    28c4:	2021883a 	mov	r16,r4
    28c8:	2809883a 	mov	r4,r5
    28cc:	dc400815 	stw	r17,32(sp)
    28d0:	dfc00915 	stw	ra,36(sp)
    28d4:	2823883a 	mov	r17,r5
    28d8:	0002f600 	call	2f60 <strlen>
    28dc:	10c00044 	addi	r3,r2,1
    28e0:	d8800115 	stw	r2,4(sp)
    28e4:	00800074 	movhi	r2,1
    28e8:	10a81c04 	addi	r2,r2,-24464
    28ec:	d8800215 	stw	r2,8(sp)
    28f0:	00800044 	movi	r2,1
    28f4:	d8800315 	stw	r2,12(sp)
    28f8:	00800084 	movi	r2,2
    28fc:	dc400015 	stw	r17,0(sp)
    2900:	d8c00615 	stw	r3,24(sp)
    2904:	dec00415 	stw	sp,16(sp)
    2908:	d8800515 	stw	r2,20(sp)
    290c:	80000226 	beq	r16,zero,2918 <_puts_r+0x5c>
    2910:	80800e17 	ldw	r2,56(r16)
    2914:	10001426 	beq	r2,zero,2968 <_puts_r+0xac>
    2918:	81400217 	ldw	r5,8(r16)
    291c:	2880030b 	ldhu	r2,12(r5)
    2920:	10c8000c 	andi	r3,r2,8192
    2924:	1800061e 	bne	r3,zero,2940 <_puts_r+0x84>
    2928:	29001917 	ldw	r4,100(r5)
    292c:	00f7ffc4 	movi	r3,-8193
    2930:	10880014 	ori	r2,r2,8192
    2934:	20c6703a 	and	r3,r4,r3
    2938:	2880030d 	sth	r2,12(r5)
    293c:	28c01915 	stw	r3,100(r5)
    2940:	d9800404 	addi	r6,sp,16
    2944:	8009883a 	mov	r4,r16
    2948:	000397c0 	call	397c <__sfvwrite_r>
    294c:	1000091e 	bne	r2,zero,2974 <_puts_r+0xb8>
    2950:	00800284 	movi	r2,10
    2954:	dfc00917 	ldw	ra,36(sp)
    2958:	dc400817 	ldw	r17,32(sp)
    295c:	dc000717 	ldw	r16,28(sp)
    2960:	dec00a04 	addi	sp,sp,40
    2964:	f800283a 	ret
    2968:	8009883a 	mov	r4,r16
    296c:	00034f80 	call	34f8 <__sinit>
    2970:	003fe906 	br	2918 <_puts_r+0x5c>
    2974:	00bfffc4 	movi	r2,-1
    2978:	003ff606 	br	2954 <_puts_r+0x98>

0000297c <puts>:
    297c:	00800074 	movhi	r2,1
    2980:	10af2c04 	addi	r2,r2,-17232
    2984:	200b883a 	mov	r5,r4
    2988:	11000017 	ldw	r4,0(r2)
    298c:	00028bc1 	jmpi	28bc <_puts_r>

00002990 <realloc>:
    2990:	00800074 	movhi	r2,1
    2994:	10af2c04 	addi	r2,r2,-17232
    2998:	280d883a 	mov	r6,r5
    299c:	200b883a 	mov	r5,r4
    29a0:	11000017 	ldw	r4,0(r2)
    29a4:	00029a81 	jmpi	29a8 <_realloc_r>

000029a8 <_realloc_r>:
    29a8:	defff604 	addi	sp,sp,-40
    29ac:	dc800215 	stw	r18,8(sp)
    29b0:	dfc00915 	stw	ra,36(sp)
    29b4:	df000815 	stw	fp,32(sp)
    29b8:	ddc00715 	stw	r23,28(sp)
    29bc:	dd800615 	stw	r22,24(sp)
    29c0:	dd400515 	stw	r21,20(sp)
    29c4:	dd000415 	stw	r20,16(sp)
    29c8:	dcc00315 	stw	r19,12(sp)
    29cc:	dc400115 	stw	r17,4(sp)
    29d0:	dc000015 	stw	r16,0(sp)
    29d4:	3025883a 	mov	r18,r6
    29d8:	2800b726 	beq	r5,zero,2cb8 <_realloc_r+0x310>
    29dc:	282b883a 	mov	r21,r5
    29e0:	2029883a 	mov	r20,r4
    29e4:	0007f240 	call	7f24 <__malloc_lock>
    29e8:	a8bfff17 	ldw	r2,-4(r21)
    29ec:	043fff04 	movi	r16,-4
    29f0:	90c002c4 	addi	r3,r18,11
    29f4:	01000584 	movi	r4,22
    29f8:	acfffe04 	addi	r19,r21,-8
    29fc:	1420703a 	and	r16,r2,r16
    2a00:	20c0332e 	bgeu	r4,r3,2ad0 <_realloc_r+0x128>
    2a04:	047ffe04 	movi	r17,-8
    2a08:	1c62703a 	and	r17,r3,r17
    2a0c:	8807883a 	mov	r3,r17
    2a10:	88005816 	blt	r17,zero,2b74 <_realloc_r+0x1cc>
    2a14:	8c805736 	bltu	r17,r18,2b74 <_realloc_r+0x1cc>
    2a18:	80c0300e 	bge	r16,r3,2adc <_realloc_r+0x134>
    2a1c:	07000074 	movhi	fp,1
    2a20:	e7298804 	addi	fp,fp,-23008
    2a24:	e1c00217 	ldw	r7,8(fp)
    2a28:	9c09883a 	add	r4,r19,r16
    2a2c:	22000117 	ldw	r8,4(r4)
    2a30:	21c06326 	beq	r4,r7,2bc0 <_realloc_r+0x218>
    2a34:	017fff84 	movi	r5,-2
    2a38:	414a703a 	and	r5,r8,r5
    2a3c:	214b883a 	add	r5,r4,r5
    2a40:	29800117 	ldw	r6,4(r5)
    2a44:	3180004c 	andi	r6,r6,1
    2a48:	30003f26 	beq	r6,zero,2b48 <_realloc_r+0x1a0>
    2a4c:	1080004c 	andi	r2,r2,1
    2a50:	10008326 	beq	r2,zero,2c60 <_realloc_r+0x2b8>
    2a54:	900b883a 	mov	r5,r18
    2a58:	a009883a 	mov	r4,r20
    2a5c:	0001c680 	call	1c68 <_malloc_r>
    2a60:	1025883a 	mov	r18,r2
    2a64:	10011e26 	beq	r2,zero,2ee0 <_realloc_r+0x538>
    2a68:	a93fff17 	ldw	r4,-4(r21)
    2a6c:	10fffe04 	addi	r3,r2,-8
    2a70:	00bfff84 	movi	r2,-2
    2a74:	2084703a 	and	r2,r4,r2
    2a78:	9885883a 	add	r2,r19,r2
    2a7c:	1880ee26 	beq	r3,r2,2e38 <_realloc_r+0x490>
    2a80:	81bfff04 	addi	r6,r16,-4
    2a84:	00800904 	movi	r2,36
    2a88:	1180b836 	bltu	r2,r6,2d6c <_realloc_r+0x3c4>
    2a8c:	00c004c4 	movi	r3,19
    2a90:	19809636 	bltu	r3,r6,2cec <_realloc_r+0x344>
    2a94:	9005883a 	mov	r2,r18
    2a98:	a807883a 	mov	r3,r21
    2a9c:	19000017 	ldw	r4,0(r3)
    2aa0:	11000015 	stw	r4,0(r2)
    2aa4:	19000117 	ldw	r4,4(r3)
    2aa8:	11000115 	stw	r4,4(r2)
    2aac:	18c00217 	ldw	r3,8(r3)
    2ab0:	10c00215 	stw	r3,8(r2)
    2ab4:	a80b883a 	mov	r5,r21
    2ab8:	a009883a 	mov	r4,r20
    2abc:	000366c0 	call	366c <_free_r>
    2ac0:	a009883a 	mov	r4,r20
    2ac4:	0007f480 	call	7f48 <__malloc_unlock>
    2ac8:	9005883a 	mov	r2,r18
    2acc:	00001206 	br	2b18 <_realloc_r+0x170>
    2ad0:	00c00404 	movi	r3,16
    2ad4:	1823883a 	mov	r17,r3
    2ad8:	003fce06 	br	2a14 <_realloc_r+0x6c>
    2adc:	a825883a 	mov	r18,r21
    2ae0:	8445c83a 	sub	r2,r16,r17
    2ae4:	00c003c4 	movi	r3,15
    2ae8:	18802636 	bltu	r3,r2,2b84 <_realloc_r+0x1dc>
    2aec:	99800117 	ldw	r6,4(r19)
    2af0:	9c07883a 	add	r3,r19,r16
    2af4:	3180004c 	andi	r6,r6,1
    2af8:	3420b03a 	or	r16,r6,r16
    2afc:	9c000115 	stw	r16,4(r19)
    2b00:	18800117 	ldw	r2,4(r3)
    2b04:	10800054 	ori	r2,r2,1
    2b08:	18800115 	stw	r2,4(r3)
    2b0c:	a009883a 	mov	r4,r20
    2b10:	0007f480 	call	7f48 <__malloc_unlock>
    2b14:	9005883a 	mov	r2,r18
    2b18:	dfc00917 	ldw	ra,36(sp)
    2b1c:	df000817 	ldw	fp,32(sp)
    2b20:	ddc00717 	ldw	r23,28(sp)
    2b24:	dd800617 	ldw	r22,24(sp)
    2b28:	dd400517 	ldw	r21,20(sp)
    2b2c:	dd000417 	ldw	r20,16(sp)
    2b30:	dcc00317 	ldw	r19,12(sp)
    2b34:	dc800217 	ldw	r18,8(sp)
    2b38:	dc400117 	ldw	r17,4(sp)
    2b3c:	dc000017 	ldw	r16,0(sp)
    2b40:	dec00a04 	addi	sp,sp,40
    2b44:	f800283a 	ret
    2b48:	017fff04 	movi	r5,-4
    2b4c:	414a703a 	and	r5,r8,r5
    2b50:	814d883a 	add	r6,r16,r5
    2b54:	30c01f16 	blt	r6,r3,2bd4 <_realloc_r+0x22c>
    2b58:	20800317 	ldw	r2,12(r4)
    2b5c:	20c00217 	ldw	r3,8(r4)
    2b60:	a825883a 	mov	r18,r21
    2b64:	3021883a 	mov	r16,r6
    2b68:	18800315 	stw	r2,12(r3)
    2b6c:	10c00215 	stw	r3,8(r2)
    2b70:	003fdb06 	br	2ae0 <_realloc_r+0x138>
    2b74:	00800304 	movi	r2,12
    2b78:	a0800015 	stw	r2,0(r20)
    2b7c:	0005883a 	mov	r2,zero
    2b80:	003fe506 	br	2b18 <_realloc_r+0x170>
    2b84:	98c00117 	ldw	r3,4(r19)
    2b88:	9c4b883a 	add	r5,r19,r17
    2b8c:	11000054 	ori	r4,r2,1
    2b90:	18c0004c 	andi	r3,r3,1
    2b94:	1c62b03a 	or	r17,r3,r17
    2b98:	9c400115 	stw	r17,4(r19)
    2b9c:	29000115 	stw	r4,4(r5)
    2ba0:	2885883a 	add	r2,r5,r2
    2ba4:	10c00117 	ldw	r3,4(r2)
    2ba8:	29400204 	addi	r5,r5,8
    2bac:	a009883a 	mov	r4,r20
    2bb0:	18c00054 	ori	r3,r3,1
    2bb4:	10c00115 	stw	r3,4(r2)
    2bb8:	000366c0 	call	366c <_free_r>
    2bbc:	003fd306 	br	2b0c <_realloc_r+0x164>
    2bc0:	017fff04 	movi	r5,-4
    2bc4:	414a703a 	and	r5,r8,r5
    2bc8:	89800404 	addi	r6,r17,16
    2bcc:	8151883a 	add	r8,r16,r5
    2bd0:	4180590e 	bge	r8,r6,2d38 <_realloc_r+0x390>
    2bd4:	1080004c 	andi	r2,r2,1
    2bd8:	103f9e1e 	bne	r2,zero,2a54 <_realloc_r+0xac>
    2bdc:	adbffe17 	ldw	r22,-8(r21)
    2be0:	00bfff04 	movi	r2,-4
    2be4:	9dadc83a 	sub	r22,r19,r22
    2be8:	b1800117 	ldw	r6,4(r22)
    2bec:	3084703a 	and	r2,r6,r2
    2bf0:	20002026 	beq	r4,zero,2c74 <_realloc_r+0x2cc>
    2bf4:	80af883a 	add	r23,r16,r2
    2bf8:	b96f883a 	add	r23,r23,r5
    2bfc:	21c05f26 	beq	r4,r7,2d7c <_realloc_r+0x3d4>
    2c00:	b8c01c16 	blt	r23,r3,2c74 <_realloc_r+0x2cc>
    2c04:	20800317 	ldw	r2,12(r4)
    2c08:	20c00217 	ldw	r3,8(r4)
    2c0c:	81bfff04 	addi	r6,r16,-4
    2c10:	01000904 	movi	r4,36
    2c14:	18800315 	stw	r2,12(r3)
    2c18:	10c00215 	stw	r3,8(r2)
    2c1c:	b0c00217 	ldw	r3,8(r22)
    2c20:	b0800317 	ldw	r2,12(r22)
    2c24:	b4800204 	addi	r18,r22,8
    2c28:	18800315 	stw	r2,12(r3)
    2c2c:	10c00215 	stw	r3,8(r2)
    2c30:	21801b36 	bltu	r4,r6,2ca0 <_realloc_r+0x2f8>
    2c34:	008004c4 	movi	r2,19
    2c38:	1180352e 	bgeu	r2,r6,2d10 <_realloc_r+0x368>
    2c3c:	a8800017 	ldw	r2,0(r21)
    2c40:	b0800215 	stw	r2,8(r22)
    2c44:	a8800117 	ldw	r2,4(r21)
    2c48:	b0800315 	stw	r2,12(r22)
    2c4c:	008006c4 	movi	r2,27
    2c50:	11807f36 	bltu	r2,r6,2e50 <_realloc_r+0x4a8>
    2c54:	b0800404 	addi	r2,r22,16
    2c58:	ad400204 	addi	r21,r21,8
    2c5c:	00002d06 	br	2d14 <_realloc_r+0x36c>
    2c60:	adbffe17 	ldw	r22,-8(r21)
    2c64:	00bfff04 	movi	r2,-4
    2c68:	9dadc83a 	sub	r22,r19,r22
    2c6c:	b1000117 	ldw	r4,4(r22)
    2c70:	2084703a 	and	r2,r4,r2
    2c74:	b03f7726 	beq	r22,zero,2a54 <_realloc_r+0xac>
    2c78:	80af883a 	add	r23,r16,r2
    2c7c:	b8ff7516 	blt	r23,r3,2a54 <_realloc_r+0xac>
    2c80:	b0800317 	ldw	r2,12(r22)
    2c84:	b0c00217 	ldw	r3,8(r22)
    2c88:	81bfff04 	addi	r6,r16,-4
    2c8c:	01000904 	movi	r4,36
    2c90:	18800315 	stw	r2,12(r3)
    2c94:	10c00215 	stw	r3,8(r2)
    2c98:	b4800204 	addi	r18,r22,8
    2c9c:	21bfe52e 	bgeu	r4,r6,2c34 <_realloc_r+0x28c>
    2ca0:	a80b883a 	mov	r5,r21
    2ca4:	9009883a 	mov	r4,r18
    2ca8:	00026380 	call	2638 <memmove>
    2cac:	b821883a 	mov	r16,r23
    2cb0:	b027883a 	mov	r19,r22
    2cb4:	003f8a06 	br	2ae0 <_realloc_r+0x138>
    2cb8:	300b883a 	mov	r5,r6
    2cbc:	dfc00917 	ldw	ra,36(sp)
    2cc0:	df000817 	ldw	fp,32(sp)
    2cc4:	ddc00717 	ldw	r23,28(sp)
    2cc8:	dd800617 	ldw	r22,24(sp)
    2ccc:	dd400517 	ldw	r21,20(sp)
    2cd0:	dd000417 	ldw	r20,16(sp)
    2cd4:	dcc00317 	ldw	r19,12(sp)
    2cd8:	dc800217 	ldw	r18,8(sp)
    2cdc:	dc400117 	ldw	r17,4(sp)
    2ce0:	dc000017 	ldw	r16,0(sp)
    2ce4:	dec00a04 	addi	sp,sp,40
    2ce8:	0001c681 	jmpi	1c68 <_malloc_r>
    2cec:	a8c00017 	ldw	r3,0(r21)
    2cf0:	90c00015 	stw	r3,0(r18)
    2cf4:	a8c00117 	ldw	r3,4(r21)
    2cf8:	90c00115 	stw	r3,4(r18)
    2cfc:	00c006c4 	movi	r3,27
    2d00:	19804536 	bltu	r3,r6,2e18 <_realloc_r+0x470>
    2d04:	90800204 	addi	r2,r18,8
    2d08:	a8c00204 	addi	r3,r21,8
    2d0c:	003f6306 	br	2a9c <_realloc_r+0xf4>
    2d10:	9005883a 	mov	r2,r18
    2d14:	a8c00017 	ldw	r3,0(r21)
    2d18:	b821883a 	mov	r16,r23
    2d1c:	b027883a 	mov	r19,r22
    2d20:	10c00015 	stw	r3,0(r2)
    2d24:	a8c00117 	ldw	r3,4(r21)
    2d28:	10c00115 	stw	r3,4(r2)
    2d2c:	a8c00217 	ldw	r3,8(r21)
    2d30:	10c00215 	stw	r3,8(r2)
    2d34:	003f6a06 	br	2ae0 <_realloc_r+0x138>
    2d38:	9c67883a 	add	r19,r19,r17
    2d3c:	4445c83a 	sub	r2,r8,r17
    2d40:	e4c00215 	stw	r19,8(fp)
    2d44:	10800054 	ori	r2,r2,1
    2d48:	98800115 	stw	r2,4(r19)
    2d4c:	a8bfff17 	ldw	r2,-4(r21)
    2d50:	a009883a 	mov	r4,r20
    2d54:	1080004c 	andi	r2,r2,1
    2d58:	1462b03a 	or	r17,r2,r17
    2d5c:	ac7fff15 	stw	r17,-4(r21)
    2d60:	0007f480 	call	7f48 <__malloc_unlock>
    2d64:	a805883a 	mov	r2,r21
    2d68:	003f6b06 	br	2b18 <_realloc_r+0x170>
    2d6c:	a80b883a 	mov	r5,r21
    2d70:	9009883a 	mov	r4,r18
    2d74:	00026380 	call	2638 <memmove>
    2d78:	003f4e06 	br	2ab4 <_realloc_r+0x10c>
    2d7c:	89000404 	addi	r4,r17,16
    2d80:	b93fbc16 	blt	r23,r4,2c74 <_realloc_r+0x2cc>
    2d84:	b0800317 	ldw	r2,12(r22)
    2d88:	b0c00217 	ldw	r3,8(r22)
    2d8c:	81bfff04 	addi	r6,r16,-4
    2d90:	01000904 	movi	r4,36
    2d94:	18800315 	stw	r2,12(r3)
    2d98:	10c00215 	stw	r3,8(r2)
    2d9c:	b4800204 	addi	r18,r22,8
    2da0:	21804336 	bltu	r4,r6,2eb0 <_realloc_r+0x508>
    2da4:	008004c4 	movi	r2,19
    2da8:	11803f2e 	bgeu	r2,r6,2ea8 <_realloc_r+0x500>
    2dac:	a8800017 	ldw	r2,0(r21)
    2db0:	b0800215 	stw	r2,8(r22)
    2db4:	a8800117 	ldw	r2,4(r21)
    2db8:	b0800315 	stw	r2,12(r22)
    2dbc:	008006c4 	movi	r2,27
    2dc0:	11803f36 	bltu	r2,r6,2ec0 <_realloc_r+0x518>
    2dc4:	b0800404 	addi	r2,r22,16
    2dc8:	ad400204 	addi	r21,r21,8
    2dcc:	a8c00017 	ldw	r3,0(r21)
    2dd0:	10c00015 	stw	r3,0(r2)
    2dd4:	a8c00117 	ldw	r3,4(r21)
    2dd8:	10c00115 	stw	r3,4(r2)
    2ddc:	a8c00217 	ldw	r3,8(r21)
    2de0:	10c00215 	stw	r3,8(r2)
    2de4:	b447883a 	add	r3,r22,r17
    2de8:	bc45c83a 	sub	r2,r23,r17
    2dec:	e0c00215 	stw	r3,8(fp)
    2df0:	10800054 	ori	r2,r2,1
    2df4:	18800115 	stw	r2,4(r3)
    2df8:	b0800117 	ldw	r2,4(r22)
    2dfc:	a009883a 	mov	r4,r20
    2e00:	1080004c 	andi	r2,r2,1
    2e04:	1462b03a 	or	r17,r2,r17
    2e08:	b4400115 	stw	r17,4(r22)
    2e0c:	0007f480 	call	7f48 <__malloc_unlock>
    2e10:	9005883a 	mov	r2,r18
    2e14:	003f4006 	br	2b18 <_realloc_r+0x170>
    2e18:	a8c00217 	ldw	r3,8(r21)
    2e1c:	90c00215 	stw	r3,8(r18)
    2e20:	a8c00317 	ldw	r3,12(r21)
    2e24:	90c00315 	stw	r3,12(r18)
    2e28:	30801126 	beq	r6,r2,2e70 <_realloc_r+0x4c8>
    2e2c:	90800404 	addi	r2,r18,16
    2e30:	a8c00404 	addi	r3,r21,16
    2e34:	003f1906 	br	2a9c <_realloc_r+0xf4>
    2e38:	90ffff17 	ldw	r3,-4(r18)
    2e3c:	00bfff04 	movi	r2,-4
    2e40:	a825883a 	mov	r18,r21
    2e44:	1884703a 	and	r2,r3,r2
    2e48:	80a1883a 	add	r16,r16,r2
    2e4c:	003f2406 	br	2ae0 <_realloc_r+0x138>
    2e50:	a8800217 	ldw	r2,8(r21)
    2e54:	b0800415 	stw	r2,16(r22)
    2e58:	a8800317 	ldw	r2,12(r21)
    2e5c:	b0800515 	stw	r2,20(r22)
    2e60:	31000a26 	beq	r6,r4,2e8c <_realloc_r+0x4e4>
    2e64:	b0800604 	addi	r2,r22,24
    2e68:	ad400404 	addi	r21,r21,16
    2e6c:	003fa906 	br	2d14 <_realloc_r+0x36c>
    2e70:	a9000417 	ldw	r4,16(r21)
    2e74:	90800604 	addi	r2,r18,24
    2e78:	a8c00604 	addi	r3,r21,24
    2e7c:	91000415 	stw	r4,16(r18)
    2e80:	a9000517 	ldw	r4,20(r21)
    2e84:	91000515 	stw	r4,20(r18)
    2e88:	003f0406 	br	2a9c <_realloc_r+0xf4>
    2e8c:	a8c00417 	ldw	r3,16(r21)
    2e90:	ad400604 	addi	r21,r21,24
    2e94:	b0800804 	addi	r2,r22,32
    2e98:	b0c00615 	stw	r3,24(r22)
    2e9c:	a8ffff17 	ldw	r3,-4(r21)
    2ea0:	b0c00715 	stw	r3,28(r22)
    2ea4:	003f9b06 	br	2d14 <_realloc_r+0x36c>
    2ea8:	9005883a 	mov	r2,r18
    2eac:	003fc706 	br	2dcc <_realloc_r+0x424>
    2eb0:	a80b883a 	mov	r5,r21
    2eb4:	9009883a 	mov	r4,r18
    2eb8:	00026380 	call	2638 <memmove>
    2ebc:	003fc906 	br	2de4 <_realloc_r+0x43c>
    2ec0:	a8800217 	ldw	r2,8(r21)
    2ec4:	b0800415 	stw	r2,16(r22)
    2ec8:	a8800317 	ldw	r2,12(r21)
    2ecc:	b0800515 	stw	r2,20(r22)
    2ed0:	31000726 	beq	r6,r4,2ef0 <_realloc_r+0x548>
    2ed4:	b0800604 	addi	r2,r22,24
    2ed8:	ad400404 	addi	r21,r21,16
    2edc:	003fbb06 	br	2dcc <_realloc_r+0x424>
    2ee0:	a009883a 	mov	r4,r20
    2ee4:	0007f480 	call	7f48 <__malloc_unlock>
    2ee8:	0005883a 	mov	r2,zero
    2eec:	003f0a06 	br	2b18 <_realloc_r+0x170>
    2ef0:	a8c00417 	ldw	r3,16(r21)
    2ef4:	ad400604 	addi	r21,r21,24
    2ef8:	b0800804 	addi	r2,r22,32
    2efc:	b0c00615 	stw	r3,24(r22)
    2f00:	a8ffff17 	ldw	r3,-4(r21)
    2f04:	b0c00715 	stw	r3,28(r22)
    2f08:	003fb006 	br	2dcc <_realloc_r+0x424>

00002f0c <_sbrk_r>:
    2f0c:	defffd04 	addi	sp,sp,-12
    2f10:	dc000015 	stw	r16,0(sp)
    2f14:	04000074 	movhi	r16,1
    2f18:	dc400115 	stw	r17,4(sp)
    2f1c:	8435fa04 	addi	r16,r16,-10264
    2f20:	2023883a 	mov	r17,r4
    2f24:	2809883a 	mov	r4,r5
    2f28:	dfc00215 	stw	ra,8(sp)
    2f2c:	80000015 	stw	zero,0(r16)
    2f30:	00081080 	call	8108 <sbrk>
    2f34:	00ffffc4 	movi	r3,-1
    2f38:	10c00526 	beq	r2,r3,2f50 <_sbrk_r+0x44>
    2f3c:	dfc00217 	ldw	ra,8(sp)
    2f40:	dc400117 	ldw	r17,4(sp)
    2f44:	dc000017 	ldw	r16,0(sp)
    2f48:	dec00304 	addi	sp,sp,12
    2f4c:	f800283a 	ret
    2f50:	80c00017 	ldw	r3,0(r16)
    2f54:	183ff926 	beq	r3,zero,2f3c <_sbrk_r+0x30>
    2f58:	88c00015 	stw	r3,0(r17)
    2f5c:	003ff706 	br	2f3c <_sbrk_r+0x30>

00002f60 <strlen>:
    2f60:	208000cc 	andi	r2,r4,3
    2f64:	10002026 	beq	r2,zero,2fe8 <strlen+0x88>
    2f68:	20800007 	ldb	r2,0(r4)
    2f6c:	10002026 	beq	r2,zero,2ff0 <strlen+0x90>
    2f70:	2005883a 	mov	r2,r4
    2f74:	00000206 	br	2f80 <strlen+0x20>
    2f78:	10c00007 	ldb	r3,0(r2)
    2f7c:	18001826 	beq	r3,zero,2fe0 <strlen+0x80>
    2f80:	10800044 	addi	r2,r2,1
    2f84:	10c000cc 	andi	r3,r2,3
    2f88:	183ffb1e 	bne	r3,zero,2f78 <strlen+0x18>
    2f8c:	10c00017 	ldw	r3,0(r2)
    2f90:	01ffbff4 	movhi	r7,65279
    2f94:	39ffbfc4 	addi	r7,r7,-257
    2f98:	00ca303a 	nor	r5,zero,r3
    2f9c:	01a02074 	movhi	r6,32897
    2fa0:	19c7883a 	add	r3,r3,r7
    2fa4:	31a02004 	addi	r6,r6,-32640
    2fa8:	1946703a 	and	r3,r3,r5
    2fac:	1986703a 	and	r3,r3,r6
    2fb0:	1800091e 	bne	r3,zero,2fd8 <strlen+0x78>
    2fb4:	10800104 	addi	r2,r2,4
    2fb8:	10c00017 	ldw	r3,0(r2)
    2fbc:	19cb883a 	add	r5,r3,r7
    2fc0:	00c6303a 	nor	r3,zero,r3
    2fc4:	28c6703a 	and	r3,r5,r3
    2fc8:	1986703a 	and	r3,r3,r6
    2fcc:	183ff926 	beq	r3,zero,2fb4 <strlen+0x54>
    2fd0:	00000106 	br	2fd8 <strlen+0x78>
    2fd4:	10800044 	addi	r2,r2,1
    2fd8:	10c00007 	ldb	r3,0(r2)
    2fdc:	183ffd1e 	bne	r3,zero,2fd4 <strlen+0x74>
    2fe0:	1105c83a 	sub	r2,r2,r4
    2fe4:	f800283a 	ret
    2fe8:	2005883a 	mov	r2,r4
    2fec:	003fe706 	br	2f8c <strlen+0x2c>
    2ff0:	0005883a 	mov	r2,zero
    2ff4:	f800283a 	ret

00002ff8 <_vfiprintf_r>:
    2ff8:	deffff04 	addi	sp,sp,-4
    2ffc:	dfc00015 	stw	ra,0(sp)
    3000:	00045f80 	call	45f8 <___vfiprintf_internal_r>
    3004:	dfc00017 	ldw	ra,0(sp)
    3008:	dec00104 	addi	sp,sp,4
    300c:	f800283a 	ret

00003010 <__call_exitprocs>:
    3010:	defff504 	addi	sp,sp,-44
    3014:	df000915 	stw	fp,36(sp)
    3018:	dd400615 	stw	r21,24(sp)
    301c:	dc800315 	stw	r18,12(sp)
    3020:	dfc00a15 	stw	ra,40(sp)
    3024:	ddc00815 	stw	r23,32(sp)
    3028:	dd800715 	stw	r22,28(sp)
    302c:	dd000515 	stw	r20,20(sp)
    3030:	dcc00415 	stw	r19,16(sp)
    3034:	dc400215 	stw	r17,8(sp)
    3038:	dc000115 	stw	r16,4(sp)
    303c:	d9000015 	stw	r4,0(sp)
    3040:	2839883a 	mov	fp,r5
    3044:	04800044 	movi	r18,1
    3048:	057fffc4 	movi	r21,-1
    304c:	00800074 	movhi	r2,1
    3050:	10af2b04 	addi	r2,r2,-17236
    3054:	12000017 	ldw	r8,0(r2)
    3058:	45005217 	ldw	r20,328(r8)
    305c:	44c05204 	addi	r19,r8,328
    3060:	a0001c26 	beq	r20,zero,30d4 <__call_exitprocs+0xc4>
    3064:	a0800117 	ldw	r2,4(r20)
    3068:	15ffffc4 	addi	r23,r2,-1
    306c:	b8000d16 	blt	r23,zero,30a4 <__call_exitprocs+0x94>
    3070:	14000044 	addi	r16,r2,1
    3074:	8421883a 	add	r16,r16,r16
    3078:	8421883a 	add	r16,r16,r16
    307c:	84402004 	addi	r17,r16,128
    3080:	a463883a 	add	r17,r20,r17
    3084:	a421883a 	add	r16,r20,r16
    3088:	e0001e26 	beq	fp,zero,3104 <__call_exitprocs+0xf4>
    308c:	80804017 	ldw	r2,256(r16)
    3090:	e0801c26 	beq	fp,r2,3104 <__call_exitprocs+0xf4>
    3094:	bdffffc4 	addi	r23,r23,-1
    3098:	843fff04 	addi	r16,r16,-4
    309c:	8c7fff04 	addi	r17,r17,-4
    30a0:	bd7ff91e 	bne	r23,r21,3088 <__call_exitprocs+0x78>
    30a4:	00800034 	movhi	r2,0
    30a8:	10871504 	addi	r2,r2,7252
    30ac:	10000926 	beq	r2,zero,30d4 <__call_exitprocs+0xc4>
    30b0:	a0800117 	ldw	r2,4(r20)
    30b4:	1000301e 	bne	r2,zero,3178 <__call_exitprocs+0x168>
    30b8:	a0800017 	ldw	r2,0(r20)
    30bc:	10003226 	beq	r2,zero,3188 <__call_exitprocs+0x178>
    30c0:	a009883a 	mov	r4,r20
    30c4:	98800015 	stw	r2,0(r19)
    30c8:	0001c540 	call	1c54 <free>
    30cc:	9d000017 	ldw	r20,0(r19)
    30d0:	a03fe41e 	bne	r20,zero,3064 <__call_exitprocs+0x54>
    30d4:	dfc00a17 	ldw	ra,40(sp)
    30d8:	df000917 	ldw	fp,36(sp)
    30dc:	ddc00817 	ldw	r23,32(sp)
    30e0:	dd800717 	ldw	r22,28(sp)
    30e4:	dd400617 	ldw	r21,24(sp)
    30e8:	dd000517 	ldw	r20,20(sp)
    30ec:	dcc00417 	ldw	r19,16(sp)
    30f0:	dc800317 	ldw	r18,12(sp)
    30f4:	dc400217 	ldw	r17,8(sp)
    30f8:	dc000117 	ldw	r16,4(sp)
    30fc:	dec00b04 	addi	sp,sp,44
    3100:	f800283a 	ret
    3104:	a0800117 	ldw	r2,4(r20)
    3108:	80c00017 	ldw	r3,0(r16)
    310c:	10bfffc4 	addi	r2,r2,-1
    3110:	15c01426 	beq	r2,r23,3164 <__call_exitprocs+0x154>
    3114:	80000015 	stw	zero,0(r16)
    3118:	183fde26 	beq	r3,zero,3094 <__call_exitprocs+0x84>
    311c:	95c8983a 	sll	r4,r18,r23
    3120:	a0806217 	ldw	r2,392(r20)
    3124:	a5800117 	ldw	r22,4(r20)
    3128:	2084703a 	and	r2,r4,r2
    312c:	10000b26 	beq	r2,zero,315c <__call_exitprocs+0x14c>
    3130:	a0806317 	ldw	r2,396(r20)
    3134:	2088703a 	and	r4,r4,r2
    3138:	20000c1e 	bne	r4,zero,316c <__call_exitprocs+0x15c>
    313c:	89400017 	ldw	r5,0(r17)
    3140:	d9000017 	ldw	r4,0(sp)
    3144:	183ee83a 	callr	r3
    3148:	a0800117 	ldw	r2,4(r20)
    314c:	15bfbf1e 	bne	r2,r22,304c <__call_exitprocs+0x3c>
    3150:	98800017 	ldw	r2,0(r19)
    3154:	153fcf26 	beq	r2,r20,3094 <__call_exitprocs+0x84>
    3158:	003fbc06 	br	304c <__call_exitprocs+0x3c>
    315c:	183ee83a 	callr	r3
    3160:	003ff906 	br	3148 <__call_exitprocs+0x138>
    3164:	a5c00115 	stw	r23,4(r20)
    3168:	003feb06 	br	3118 <__call_exitprocs+0x108>
    316c:	89000017 	ldw	r4,0(r17)
    3170:	183ee83a 	callr	r3
    3174:	003ff406 	br	3148 <__call_exitprocs+0x138>
    3178:	a0800017 	ldw	r2,0(r20)
    317c:	a027883a 	mov	r19,r20
    3180:	1029883a 	mov	r20,r2
    3184:	003fb606 	br	3060 <__call_exitprocs+0x50>
    3188:	0005883a 	mov	r2,zero
    318c:	003ffb06 	br	317c <__call_exitprocs+0x16c>

00003190 <abort>:
    3190:	deffff04 	addi	sp,sp,-4
    3194:	01000184 	movi	r4,6
    3198:	dfc00015 	stw	ra,0(sp)
    319c:	00042f80 	call	42f8 <raise>
    31a0:	01000044 	movi	r4,1
    31a4:	00079200 	call	7920 <_exit>

000031a8 <__fp_unlock>:
    31a8:	0005883a 	mov	r2,zero
    31ac:	f800283a 	ret

000031b0 <_cleanup_r>:
    31b0:	01400034 	movhi	r5,0
    31b4:	29574d04 	addi	r5,r5,23860
    31b8:	0003efc1 	jmpi	3efc <_fwalk_reent>

000031bc <__sinit.part.1>:
    31bc:	defff704 	addi	sp,sp,-36
    31c0:	00c00034 	movhi	r3,0
    31c4:	dfc00815 	stw	ra,32(sp)
    31c8:	ddc00715 	stw	r23,28(sp)
    31cc:	dd800615 	stw	r22,24(sp)
    31d0:	dd400515 	stw	r21,20(sp)
    31d4:	dd000415 	stw	r20,16(sp)
    31d8:	dcc00315 	stw	r19,12(sp)
    31dc:	dc800215 	stw	r18,8(sp)
    31e0:	dc400115 	stw	r17,4(sp)
    31e4:	dc000015 	stw	r16,0(sp)
    31e8:	18cc6c04 	addi	r3,r3,12720
    31ec:	24000117 	ldw	r16,4(r4)
    31f0:	20c00f15 	stw	r3,60(r4)
    31f4:	2080bb04 	addi	r2,r4,748
    31f8:	00c000c4 	movi	r3,3
    31fc:	20c0b915 	stw	r3,740(r4)
    3200:	2080ba15 	stw	r2,744(r4)
    3204:	2000b815 	stw	zero,736(r4)
    3208:	05c00204 	movi	r23,8
    320c:	00800104 	movi	r2,4
    3210:	2025883a 	mov	r18,r4
    3214:	b80d883a 	mov	r6,r23
    3218:	81001704 	addi	r4,r16,92
    321c:	000b883a 	mov	r5,zero
    3220:	80000015 	stw	zero,0(r16)
    3224:	80000115 	stw	zero,4(r16)
    3228:	80000215 	stw	zero,8(r16)
    322c:	8080030d 	sth	r2,12(r16)
    3230:	80001915 	stw	zero,100(r16)
    3234:	8000038d 	sth	zero,14(r16)
    3238:	80000415 	stw	zero,16(r16)
    323c:	80000515 	stw	zero,20(r16)
    3240:	80000615 	stw	zero,24(r16)
    3244:	00027940 	call	2794 <memset>
    3248:	05800034 	movhi	r22,0
    324c:	94400217 	ldw	r17,8(r18)
    3250:	05400034 	movhi	r21,0
    3254:	05000034 	movhi	r20,0
    3258:	04c00034 	movhi	r19,0
    325c:	b590ea04 	addi	r22,r22,17320
    3260:	ad510104 	addi	r21,r21,17412
    3264:	a5112004 	addi	r20,r20,17536
    3268:	9cd13704 	addi	r19,r19,17628
    326c:	85800815 	stw	r22,32(r16)
    3270:	85400915 	stw	r21,36(r16)
    3274:	85000a15 	stw	r20,40(r16)
    3278:	84c00b15 	stw	r19,44(r16)
    327c:	84000715 	stw	r16,28(r16)
    3280:	00800284 	movi	r2,10
    3284:	8880030d 	sth	r2,12(r17)
    3288:	00800044 	movi	r2,1
    328c:	b80d883a 	mov	r6,r23
    3290:	89001704 	addi	r4,r17,92
    3294:	000b883a 	mov	r5,zero
    3298:	88000015 	stw	zero,0(r17)
    329c:	88000115 	stw	zero,4(r17)
    32a0:	88000215 	stw	zero,8(r17)
    32a4:	88001915 	stw	zero,100(r17)
    32a8:	8880038d 	sth	r2,14(r17)
    32ac:	88000415 	stw	zero,16(r17)
    32b0:	88000515 	stw	zero,20(r17)
    32b4:	88000615 	stw	zero,24(r17)
    32b8:	00027940 	call	2794 <memset>
    32bc:	94000317 	ldw	r16,12(r18)
    32c0:	00800484 	movi	r2,18
    32c4:	8c400715 	stw	r17,28(r17)
    32c8:	8d800815 	stw	r22,32(r17)
    32cc:	8d400915 	stw	r21,36(r17)
    32d0:	8d000a15 	stw	r20,40(r17)
    32d4:	8cc00b15 	stw	r19,44(r17)
    32d8:	8080030d 	sth	r2,12(r16)
    32dc:	00800084 	movi	r2,2
    32e0:	80000015 	stw	zero,0(r16)
    32e4:	80000115 	stw	zero,4(r16)
    32e8:	80000215 	stw	zero,8(r16)
    32ec:	80001915 	stw	zero,100(r16)
    32f0:	8080038d 	sth	r2,14(r16)
    32f4:	80000415 	stw	zero,16(r16)
    32f8:	80000515 	stw	zero,20(r16)
    32fc:	80000615 	stw	zero,24(r16)
    3300:	b80d883a 	mov	r6,r23
    3304:	000b883a 	mov	r5,zero
    3308:	81001704 	addi	r4,r16,92
    330c:	00027940 	call	2794 <memset>
    3310:	00800044 	movi	r2,1
    3314:	84000715 	stw	r16,28(r16)
    3318:	85800815 	stw	r22,32(r16)
    331c:	85400915 	stw	r21,36(r16)
    3320:	85000a15 	stw	r20,40(r16)
    3324:	84c00b15 	stw	r19,44(r16)
    3328:	90800e15 	stw	r2,56(r18)
    332c:	dfc00817 	ldw	ra,32(sp)
    3330:	ddc00717 	ldw	r23,28(sp)
    3334:	dd800617 	ldw	r22,24(sp)
    3338:	dd400517 	ldw	r21,20(sp)
    333c:	dd000417 	ldw	r20,16(sp)
    3340:	dcc00317 	ldw	r19,12(sp)
    3344:	dc800217 	ldw	r18,8(sp)
    3348:	dc400117 	ldw	r17,4(sp)
    334c:	dc000017 	ldw	r16,0(sp)
    3350:	dec00904 	addi	sp,sp,36
    3354:	f800283a 	ret

00003358 <__fp_lock>:
    3358:	0005883a 	mov	r2,zero
    335c:	f800283a 	ret

00003360 <__sfmoreglue>:
    3360:	defffc04 	addi	sp,sp,-16
    3364:	dc400115 	stw	r17,4(sp)
    3368:	2c7fffc4 	addi	r17,r5,-1
    336c:	8c401a24 	muli	r17,r17,104
    3370:	dc800215 	stw	r18,8(sp)
    3374:	2825883a 	mov	r18,r5
    3378:	89401d04 	addi	r5,r17,116
    337c:	dc000015 	stw	r16,0(sp)
    3380:	dfc00315 	stw	ra,12(sp)
    3384:	0001c680 	call	1c68 <_malloc_r>
    3388:	1021883a 	mov	r16,r2
    338c:	10000726 	beq	r2,zero,33ac <__sfmoreglue+0x4c>
    3390:	11000304 	addi	r4,r2,12
    3394:	10000015 	stw	zero,0(r2)
    3398:	14800115 	stw	r18,4(r2)
    339c:	11000215 	stw	r4,8(r2)
    33a0:	89801a04 	addi	r6,r17,104
    33a4:	000b883a 	mov	r5,zero
    33a8:	00027940 	call	2794 <memset>
    33ac:	8005883a 	mov	r2,r16
    33b0:	dfc00317 	ldw	ra,12(sp)
    33b4:	dc800217 	ldw	r18,8(sp)
    33b8:	dc400117 	ldw	r17,4(sp)
    33bc:	dc000017 	ldw	r16,0(sp)
    33c0:	dec00404 	addi	sp,sp,16
    33c4:	f800283a 	ret

000033c8 <__sfp>:
    33c8:	defffb04 	addi	sp,sp,-20
    33cc:	dc000015 	stw	r16,0(sp)
    33d0:	04000074 	movhi	r16,1
    33d4:	842f2b04 	addi	r16,r16,-17236
    33d8:	dcc00315 	stw	r19,12(sp)
    33dc:	2027883a 	mov	r19,r4
    33e0:	81000017 	ldw	r4,0(r16)
    33e4:	dfc00415 	stw	ra,16(sp)
    33e8:	dc800215 	stw	r18,8(sp)
    33ec:	20800e17 	ldw	r2,56(r4)
    33f0:	dc400115 	stw	r17,4(sp)
    33f4:	1000021e 	bne	r2,zero,3400 <__sfp+0x38>
    33f8:	00031bc0 	call	31bc <__sinit.part.1>
    33fc:	81000017 	ldw	r4,0(r16)
    3400:	2480b804 	addi	r18,r4,736
    3404:	047fffc4 	movi	r17,-1
    3408:	91000117 	ldw	r4,4(r18)
    340c:	94000217 	ldw	r16,8(r18)
    3410:	213fffc4 	addi	r4,r4,-1
    3414:	20000a16 	blt	r4,zero,3440 <__sfp+0x78>
    3418:	8080030f 	ldh	r2,12(r16)
    341c:	10000c26 	beq	r2,zero,3450 <__sfp+0x88>
    3420:	80c01d04 	addi	r3,r16,116
    3424:	00000206 	br	3430 <__sfp+0x68>
    3428:	18bfe60f 	ldh	r2,-104(r3)
    342c:	10000826 	beq	r2,zero,3450 <__sfp+0x88>
    3430:	213fffc4 	addi	r4,r4,-1
    3434:	1c3ffd04 	addi	r16,r3,-12
    3438:	18c01a04 	addi	r3,r3,104
    343c:	247ffa1e 	bne	r4,r17,3428 <__sfp+0x60>
    3440:	90800017 	ldw	r2,0(r18)
    3444:	10001d26 	beq	r2,zero,34bc <__sfp+0xf4>
    3448:	1025883a 	mov	r18,r2
    344c:	003fee06 	br	3408 <__sfp+0x40>
    3450:	00bfffc4 	movi	r2,-1
    3454:	8080038d 	sth	r2,14(r16)
    3458:	00800044 	movi	r2,1
    345c:	8080030d 	sth	r2,12(r16)
    3460:	80001915 	stw	zero,100(r16)
    3464:	80000015 	stw	zero,0(r16)
    3468:	80000215 	stw	zero,8(r16)
    346c:	80000115 	stw	zero,4(r16)
    3470:	80000415 	stw	zero,16(r16)
    3474:	80000515 	stw	zero,20(r16)
    3478:	80000615 	stw	zero,24(r16)
    347c:	01800204 	movi	r6,8
    3480:	000b883a 	mov	r5,zero
    3484:	81001704 	addi	r4,r16,92
    3488:	00027940 	call	2794 <memset>
    348c:	8005883a 	mov	r2,r16
    3490:	80000c15 	stw	zero,48(r16)
    3494:	80000d15 	stw	zero,52(r16)
    3498:	80001115 	stw	zero,68(r16)
    349c:	80001215 	stw	zero,72(r16)
    34a0:	dfc00417 	ldw	ra,16(sp)
    34a4:	dcc00317 	ldw	r19,12(sp)
    34a8:	dc800217 	ldw	r18,8(sp)
    34ac:	dc400117 	ldw	r17,4(sp)
    34b0:	dc000017 	ldw	r16,0(sp)
    34b4:	dec00504 	addi	sp,sp,20
    34b8:	f800283a 	ret
    34bc:	01400104 	movi	r5,4
    34c0:	9809883a 	mov	r4,r19
    34c4:	00033600 	call	3360 <__sfmoreglue>
    34c8:	90800015 	stw	r2,0(r18)
    34cc:	103fde1e 	bne	r2,zero,3448 <__sfp+0x80>
    34d0:	00800304 	movi	r2,12
    34d4:	98800015 	stw	r2,0(r19)
    34d8:	0005883a 	mov	r2,zero
    34dc:	003ff006 	br	34a0 <__sfp+0xd8>

000034e0 <_cleanup>:
    34e0:	00800074 	movhi	r2,1
    34e4:	10af2b04 	addi	r2,r2,-17236
    34e8:	11000017 	ldw	r4,0(r2)
    34ec:	01400034 	movhi	r5,0
    34f0:	29574d04 	addi	r5,r5,23860
    34f4:	0003efc1 	jmpi	3efc <_fwalk_reent>

000034f8 <__sinit>:
    34f8:	20800e17 	ldw	r2,56(r4)
    34fc:	10000126 	beq	r2,zero,3504 <__sinit+0xc>
    3500:	f800283a 	ret
    3504:	00031bc1 	jmpi	31bc <__sinit.part.1>

00003508 <__sfp_lock_acquire>:
    3508:	f800283a 	ret

0000350c <__sfp_lock_release>:
    350c:	f800283a 	ret

00003510 <__sinit_lock_acquire>:
    3510:	f800283a 	ret

00003514 <__sinit_lock_release>:
    3514:	f800283a 	ret

00003518 <__fp_lock_all>:
    3518:	00800074 	movhi	r2,1
    351c:	10af2c04 	addi	r2,r2,-17232
    3520:	11000017 	ldw	r4,0(r2)
    3524:	01400034 	movhi	r5,0
    3528:	294cd604 	addi	r5,r5,13144
    352c:	0003e381 	jmpi	3e38 <_fwalk>

00003530 <__fp_unlock_all>:
    3530:	00800074 	movhi	r2,1
    3534:	10af2c04 	addi	r2,r2,-17232
    3538:	11000017 	ldw	r4,0(r2)
    353c:	01400034 	movhi	r5,0
    3540:	294c6a04 	addi	r5,r5,12712
    3544:	0003e381 	jmpi	3e38 <_fwalk>

00003548 <_malloc_trim_r>:
    3548:	defffb04 	addi	sp,sp,-20
    354c:	dcc00315 	stw	r19,12(sp)
    3550:	04c00074 	movhi	r19,1
    3554:	dc800215 	stw	r18,8(sp)
    3558:	dc400115 	stw	r17,4(sp)
    355c:	dc000015 	stw	r16,0(sp)
    3560:	dfc00415 	stw	ra,16(sp)
    3564:	2821883a 	mov	r16,r5
    3568:	9ce98804 	addi	r19,r19,-23008
    356c:	2025883a 	mov	r18,r4
    3570:	0007f240 	call	7f24 <__malloc_lock>
    3574:	98800217 	ldw	r2,8(r19)
    3578:	14400117 	ldw	r17,4(r2)
    357c:	00bfff04 	movi	r2,-4
    3580:	88a2703a 	and	r17,r17,r2
    3584:	8c21c83a 	sub	r16,r17,r16
    3588:	8403fbc4 	addi	r16,r16,4079
    358c:	8020d33a 	srli	r16,r16,12
    3590:	0083ffc4 	movi	r2,4095
    3594:	843fffc4 	addi	r16,r16,-1
    3598:	8020933a 	slli	r16,r16,12
    359c:	1400060e 	bge	r2,r16,35b8 <_malloc_trim_r+0x70>
    35a0:	000b883a 	mov	r5,zero
    35a4:	9009883a 	mov	r4,r18
    35a8:	0002f0c0 	call	2f0c <_sbrk_r>
    35ac:	98c00217 	ldw	r3,8(r19)
    35b0:	1c47883a 	add	r3,r3,r17
    35b4:	10c00a26 	beq	r2,r3,35e0 <_malloc_trim_r+0x98>
    35b8:	9009883a 	mov	r4,r18
    35bc:	0007f480 	call	7f48 <__malloc_unlock>
    35c0:	0005883a 	mov	r2,zero
    35c4:	dfc00417 	ldw	ra,16(sp)
    35c8:	dcc00317 	ldw	r19,12(sp)
    35cc:	dc800217 	ldw	r18,8(sp)
    35d0:	dc400117 	ldw	r17,4(sp)
    35d4:	dc000017 	ldw	r16,0(sp)
    35d8:	dec00504 	addi	sp,sp,20
    35dc:	f800283a 	ret
    35e0:	040bc83a 	sub	r5,zero,r16
    35e4:	9009883a 	mov	r4,r18
    35e8:	0002f0c0 	call	2f0c <_sbrk_r>
    35ec:	00ffffc4 	movi	r3,-1
    35f0:	10c00d26 	beq	r2,r3,3628 <_malloc_trim_r+0xe0>
    35f4:	00c00074 	movhi	r3,1
    35f8:	18f60504 	addi	r3,r3,-10220
    35fc:	18800017 	ldw	r2,0(r3)
    3600:	99000217 	ldw	r4,8(r19)
    3604:	8c23c83a 	sub	r17,r17,r16
    3608:	8c400054 	ori	r17,r17,1
    360c:	1421c83a 	sub	r16,r2,r16
    3610:	24400115 	stw	r17,4(r4)
    3614:	9009883a 	mov	r4,r18
    3618:	1c000015 	stw	r16,0(r3)
    361c:	0007f480 	call	7f48 <__malloc_unlock>
    3620:	00800044 	movi	r2,1
    3624:	003fe706 	br	35c4 <_malloc_trim_r+0x7c>
    3628:	000b883a 	mov	r5,zero
    362c:	9009883a 	mov	r4,r18
    3630:	0002f0c0 	call	2f0c <_sbrk_r>
    3634:	99000217 	ldw	r4,8(r19)
    3638:	014003c4 	movi	r5,15
    363c:	1107c83a 	sub	r3,r2,r4
    3640:	28ffdd0e 	bge	r5,r3,35b8 <_malloc_trim_r+0x70>
    3644:	01400074 	movhi	r5,1
    3648:	296f2d04 	addi	r5,r5,-17228
    364c:	29400017 	ldw	r5,0(r5)
    3650:	18c00054 	ori	r3,r3,1
    3654:	20c00115 	stw	r3,4(r4)
    3658:	00c00074 	movhi	r3,1
    365c:	1145c83a 	sub	r2,r2,r5
    3660:	18f60504 	addi	r3,r3,-10220
    3664:	18800015 	stw	r2,0(r3)
    3668:	003fd306 	br	35b8 <_malloc_trim_r+0x70>

0000366c <_free_r>:
    366c:	28004126 	beq	r5,zero,3774 <_free_r+0x108>
    3670:	defffd04 	addi	sp,sp,-12
    3674:	dc400115 	stw	r17,4(sp)
    3678:	dc000015 	stw	r16,0(sp)
    367c:	2023883a 	mov	r17,r4
    3680:	2821883a 	mov	r16,r5
    3684:	dfc00215 	stw	ra,8(sp)
    3688:	0007f240 	call	7f24 <__malloc_lock>
    368c:	81ffff17 	ldw	r7,-4(r16)
    3690:	00bfff84 	movi	r2,-2
    3694:	01000074 	movhi	r4,1
    3698:	81bffe04 	addi	r6,r16,-8
    369c:	3884703a 	and	r2,r7,r2
    36a0:	21298804 	addi	r4,r4,-23008
    36a4:	308b883a 	add	r5,r6,r2
    36a8:	2a400117 	ldw	r9,4(r5)
    36ac:	22000217 	ldw	r8,8(r4)
    36b0:	00ffff04 	movi	r3,-4
    36b4:	48c6703a 	and	r3,r9,r3
    36b8:	2a005726 	beq	r5,r8,3818 <_free_r+0x1ac>
    36bc:	28c00115 	stw	r3,4(r5)
    36c0:	39c0004c 	andi	r7,r7,1
    36c4:	3800091e 	bne	r7,zero,36ec <_free_r+0x80>
    36c8:	823ffe17 	ldw	r8,-8(r16)
    36cc:	22400204 	addi	r9,r4,8
    36d0:	320dc83a 	sub	r6,r6,r8
    36d4:	31c00217 	ldw	r7,8(r6)
    36d8:	1205883a 	add	r2,r2,r8
    36dc:	3a406526 	beq	r7,r9,3874 <_free_r+0x208>
    36e0:	32000317 	ldw	r8,12(r6)
    36e4:	3a000315 	stw	r8,12(r7)
    36e8:	41c00215 	stw	r7,8(r8)
    36ec:	28cf883a 	add	r7,r5,r3
    36f0:	39c00117 	ldw	r7,4(r7)
    36f4:	39c0004c 	andi	r7,r7,1
    36f8:	38003a26 	beq	r7,zero,37e4 <_free_r+0x178>
    36fc:	10c00054 	ori	r3,r2,1
    3700:	30c00115 	stw	r3,4(r6)
    3704:	3087883a 	add	r3,r6,r2
    3708:	18800015 	stw	r2,0(r3)
    370c:	00c07fc4 	movi	r3,511
    3710:	18801936 	bltu	r3,r2,3778 <_free_r+0x10c>
    3714:	1004d0fa 	srli	r2,r2,3
    3718:	01c00044 	movi	r7,1
    371c:	21400117 	ldw	r5,4(r4)
    3720:	10c00044 	addi	r3,r2,1
    3724:	18c7883a 	add	r3,r3,r3
    3728:	1005d0ba 	srai	r2,r2,2
    372c:	18c7883a 	add	r3,r3,r3
    3730:	18c7883a 	add	r3,r3,r3
    3734:	1907883a 	add	r3,r3,r4
    3738:	3884983a 	sll	r2,r7,r2
    373c:	19c00017 	ldw	r7,0(r3)
    3740:	1a3ffe04 	addi	r8,r3,-8
    3744:	1144b03a 	or	r2,r2,r5
    3748:	32000315 	stw	r8,12(r6)
    374c:	31c00215 	stw	r7,8(r6)
    3750:	20800115 	stw	r2,4(r4)
    3754:	19800015 	stw	r6,0(r3)
    3758:	39800315 	stw	r6,12(r7)
    375c:	8809883a 	mov	r4,r17
    3760:	dfc00217 	ldw	ra,8(sp)
    3764:	dc400117 	ldw	r17,4(sp)
    3768:	dc000017 	ldw	r16,0(sp)
    376c:	dec00304 	addi	sp,sp,12
    3770:	0007f481 	jmpi	7f48 <__malloc_unlock>
    3774:	f800283a 	ret
    3778:	100ad27a 	srli	r5,r2,9
    377c:	00c00104 	movi	r3,4
    3780:	19404a36 	bltu	r3,r5,38ac <_free_r+0x240>
    3784:	100ad1ba 	srli	r5,r2,6
    3788:	28c00e44 	addi	r3,r5,57
    378c:	18c7883a 	add	r3,r3,r3
    3790:	29400e04 	addi	r5,r5,56
    3794:	18c7883a 	add	r3,r3,r3
    3798:	18c7883a 	add	r3,r3,r3
    379c:	1909883a 	add	r4,r3,r4
    37a0:	20c00017 	ldw	r3,0(r4)
    37a4:	01c00074 	movhi	r7,1
    37a8:	213ffe04 	addi	r4,r4,-8
    37ac:	39e98804 	addi	r7,r7,-23008
    37b0:	20c04426 	beq	r4,r3,38c4 <_free_r+0x258>
    37b4:	01ffff04 	movi	r7,-4
    37b8:	19400117 	ldw	r5,4(r3)
    37bc:	29ca703a 	and	r5,r5,r7
    37c0:	1140022e 	bgeu	r2,r5,37cc <_free_r+0x160>
    37c4:	18c00217 	ldw	r3,8(r3)
    37c8:	20fffb1e 	bne	r4,r3,37b8 <_free_r+0x14c>
    37cc:	19000317 	ldw	r4,12(r3)
    37d0:	31000315 	stw	r4,12(r6)
    37d4:	30c00215 	stw	r3,8(r6)
    37d8:	21800215 	stw	r6,8(r4)
    37dc:	19800315 	stw	r6,12(r3)
    37e0:	003fde06 	br	375c <_free_r+0xf0>
    37e4:	29c00217 	ldw	r7,8(r5)
    37e8:	10c5883a 	add	r2,r2,r3
    37ec:	00c00074 	movhi	r3,1
    37f0:	18e98a04 	addi	r3,r3,-23000
    37f4:	38c03b26 	beq	r7,r3,38e4 <_free_r+0x278>
    37f8:	2a000317 	ldw	r8,12(r5)
    37fc:	11400054 	ori	r5,r2,1
    3800:	3087883a 	add	r3,r6,r2
    3804:	3a000315 	stw	r8,12(r7)
    3808:	41c00215 	stw	r7,8(r8)
    380c:	31400115 	stw	r5,4(r6)
    3810:	18800015 	stw	r2,0(r3)
    3814:	003fbd06 	br	370c <_free_r+0xa0>
    3818:	39c0004c 	andi	r7,r7,1
    381c:	10c5883a 	add	r2,r2,r3
    3820:	3800071e 	bne	r7,zero,3840 <_free_r+0x1d4>
    3824:	81fffe17 	ldw	r7,-8(r16)
    3828:	31cdc83a 	sub	r6,r6,r7
    382c:	30c00317 	ldw	r3,12(r6)
    3830:	31400217 	ldw	r5,8(r6)
    3834:	11c5883a 	add	r2,r2,r7
    3838:	28c00315 	stw	r3,12(r5)
    383c:	19400215 	stw	r5,8(r3)
    3840:	10c00054 	ori	r3,r2,1
    3844:	30c00115 	stw	r3,4(r6)
    3848:	00c00074 	movhi	r3,1
    384c:	18ef2e04 	addi	r3,r3,-17224
    3850:	18c00017 	ldw	r3,0(r3)
    3854:	21800215 	stw	r6,8(r4)
    3858:	10ffc036 	bltu	r2,r3,375c <_free_r+0xf0>
    385c:	00800074 	movhi	r2,1
    3860:	10b5f904 	addi	r2,r2,-10268
    3864:	11400017 	ldw	r5,0(r2)
    3868:	8809883a 	mov	r4,r17
    386c:	00035480 	call	3548 <_malloc_trim_r>
    3870:	003fba06 	br	375c <_free_r+0xf0>
    3874:	28c9883a 	add	r4,r5,r3
    3878:	21000117 	ldw	r4,4(r4)
    387c:	2100004c 	andi	r4,r4,1
    3880:	2000391e 	bne	r4,zero,3968 <_free_r+0x2fc>
    3884:	29c00217 	ldw	r7,8(r5)
    3888:	29000317 	ldw	r4,12(r5)
    388c:	1885883a 	add	r2,r3,r2
    3890:	10c00054 	ori	r3,r2,1
    3894:	39000315 	stw	r4,12(r7)
    3898:	21c00215 	stw	r7,8(r4)
    389c:	30c00115 	stw	r3,4(r6)
    38a0:	308d883a 	add	r6,r6,r2
    38a4:	30800015 	stw	r2,0(r6)
    38a8:	003fac06 	br	375c <_free_r+0xf0>
    38ac:	00c00504 	movi	r3,20
    38b0:	19401536 	bltu	r3,r5,3908 <_free_r+0x29c>
    38b4:	28c01704 	addi	r3,r5,92
    38b8:	18c7883a 	add	r3,r3,r3
    38bc:	294016c4 	addi	r5,r5,91
    38c0:	003fb406 	br	3794 <_free_r+0x128>
    38c4:	280bd0ba 	srai	r5,r5,2
    38c8:	00c00044 	movi	r3,1
    38cc:	38800117 	ldw	r2,4(r7)
    38d0:	194a983a 	sll	r5,r3,r5
    38d4:	2007883a 	mov	r3,r4
    38d8:	2884b03a 	or	r2,r5,r2
    38dc:	38800115 	stw	r2,4(r7)
    38e0:	003fbb06 	br	37d0 <_free_r+0x164>
    38e4:	21800515 	stw	r6,20(r4)
    38e8:	21800415 	stw	r6,16(r4)
    38ec:	10c00054 	ori	r3,r2,1
    38f0:	31c00315 	stw	r7,12(r6)
    38f4:	31c00215 	stw	r7,8(r6)
    38f8:	30c00115 	stw	r3,4(r6)
    38fc:	308d883a 	add	r6,r6,r2
    3900:	30800015 	stw	r2,0(r6)
    3904:	003f9506 	br	375c <_free_r+0xf0>
    3908:	00c01504 	movi	r3,84
    390c:	19400536 	bltu	r3,r5,3924 <_free_r+0x2b8>
    3910:	100ad33a 	srli	r5,r2,12
    3914:	28c01bc4 	addi	r3,r5,111
    3918:	18c7883a 	add	r3,r3,r3
    391c:	29401b84 	addi	r5,r5,110
    3920:	003f9c06 	br	3794 <_free_r+0x128>
    3924:	00c05504 	movi	r3,340
    3928:	19400536 	bltu	r3,r5,3940 <_free_r+0x2d4>
    392c:	100ad3fa 	srli	r5,r2,15
    3930:	28c01e04 	addi	r3,r5,120
    3934:	18c7883a 	add	r3,r3,r3
    3938:	29401dc4 	addi	r5,r5,119
    393c:	003f9506 	br	3794 <_free_r+0x128>
    3940:	00c15504 	movi	r3,1364
    3944:	19400536 	bltu	r3,r5,395c <_free_r+0x2f0>
    3948:	100ad4ba 	srli	r5,r2,18
    394c:	28c01f44 	addi	r3,r5,125
    3950:	18c7883a 	add	r3,r3,r3
    3954:	29401f04 	addi	r5,r5,124
    3958:	003f8e06 	br	3794 <_free_r+0x128>
    395c:	00c03f84 	movi	r3,254
    3960:	01401f84 	movi	r5,126
    3964:	003f8b06 	br	3794 <_free_r+0x128>
    3968:	10c00054 	ori	r3,r2,1
    396c:	30c00115 	stw	r3,4(r6)
    3970:	308d883a 	add	r6,r6,r2
    3974:	30800015 	stw	r2,0(r6)
    3978:	003f7806 	br	375c <_free_r+0xf0>

0000397c <__sfvwrite_r>:
    397c:	30800217 	ldw	r2,8(r6)
    3980:	10006726 	beq	r2,zero,3b20 <__sfvwrite_r+0x1a4>
    3984:	28c0030b 	ldhu	r3,12(r5)
    3988:	defff404 	addi	sp,sp,-48
    398c:	dd400715 	stw	r21,28(sp)
    3990:	dd000615 	stw	r20,24(sp)
    3994:	dc000215 	stw	r16,8(sp)
    3998:	dfc00b15 	stw	ra,44(sp)
    399c:	df000a15 	stw	fp,40(sp)
    39a0:	ddc00915 	stw	r23,36(sp)
    39a4:	dd800815 	stw	r22,32(sp)
    39a8:	dcc00515 	stw	r19,20(sp)
    39ac:	dc800415 	stw	r18,16(sp)
    39b0:	dc400315 	stw	r17,12(sp)
    39b4:	1880020c 	andi	r2,r3,8
    39b8:	2821883a 	mov	r16,r5
    39bc:	202b883a 	mov	r21,r4
    39c0:	3029883a 	mov	r20,r6
    39c4:	10002726 	beq	r2,zero,3a64 <__sfvwrite_r+0xe8>
    39c8:	28800417 	ldw	r2,16(r5)
    39cc:	10002526 	beq	r2,zero,3a64 <__sfvwrite_r+0xe8>
    39d0:	1880008c 	andi	r2,r3,2
    39d4:	a4400017 	ldw	r17,0(r20)
    39d8:	10002a26 	beq	r2,zero,3a84 <__sfvwrite_r+0x108>
    39dc:	05a00034 	movhi	r22,32768
    39e0:	0027883a 	mov	r19,zero
    39e4:	0025883a 	mov	r18,zero
    39e8:	b5bf0004 	addi	r22,r22,-1024
    39ec:	980d883a 	mov	r6,r19
    39f0:	a809883a 	mov	r4,r21
    39f4:	90004626 	beq	r18,zero,3b10 <__sfvwrite_r+0x194>
    39f8:	900f883a 	mov	r7,r18
    39fc:	b480022e 	bgeu	r22,r18,3a08 <__sfvwrite_r+0x8c>
    3a00:	01e00034 	movhi	r7,32768
    3a04:	39ff0004 	addi	r7,r7,-1024
    3a08:	80800917 	ldw	r2,36(r16)
    3a0c:	81400717 	ldw	r5,28(r16)
    3a10:	103ee83a 	callr	r2
    3a14:	0080570e 	bge	zero,r2,3b74 <__sfvwrite_r+0x1f8>
    3a18:	a0c00217 	ldw	r3,8(r20)
    3a1c:	98a7883a 	add	r19,r19,r2
    3a20:	90a5c83a 	sub	r18,r18,r2
    3a24:	1885c83a 	sub	r2,r3,r2
    3a28:	a0800215 	stw	r2,8(r20)
    3a2c:	103fef1e 	bne	r2,zero,39ec <__sfvwrite_r+0x70>
    3a30:	0005883a 	mov	r2,zero
    3a34:	dfc00b17 	ldw	ra,44(sp)
    3a38:	df000a17 	ldw	fp,40(sp)
    3a3c:	ddc00917 	ldw	r23,36(sp)
    3a40:	dd800817 	ldw	r22,32(sp)
    3a44:	dd400717 	ldw	r21,28(sp)
    3a48:	dd000617 	ldw	r20,24(sp)
    3a4c:	dcc00517 	ldw	r19,20(sp)
    3a50:	dc800417 	ldw	r18,16(sp)
    3a54:	dc400317 	ldw	r17,12(sp)
    3a58:	dc000217 	ldw	r16,8(sp)
    3a5c:	dec00c04 	addi	sp,sp,48
    3a60:	f800283a 	ret
    3a64:	800b883a 	mov	r5,r16
    3a68:	a809883a 	mov	r4,r21
    3a6c:	0005b8c0 	call	5b8c <__swsetup_r>
    3a70:	1000eb1e 	bne	r2,zero,3e20 <__sfvwrite_r+0x4a4>
    3a74:	80c0030b 	ldhu	r3,12(r16)
    3a78:	a4400017 	ldw	r17,0(r20)
    3a7c:	1880008c 	andi	r2,r3,2
    3a80:	103fd61e 	bne	r2,zero,39dc <__sfvwrite_r+0x60>
    3a84:	1880004c 	andi	r2,r3,1
    3a88:	10003f1e 	bne	r2,zero,3b88 <__sfvwrite_r+0x20c>
    3a8c:	0039883a 	mov	fp,zero
    3a90:	0025883a 	mov	r18,zero
    3a94:	90001a26 	beq	r18,zero,3b00 <__sfvwrite_r+0x184>
    3a98:	1880800c 	andi	r2,r3,512
    3a9c:	84c00217 	ldw	r19,8(r16)
    3aa0:	10002126 	beq	r2,zero,3b28 <__sfvwrite_r+0x1ac>
    3aa4:	982f883a 	mov	r23,r19
    3aa8:	94c09336 	bltu	r18,r19,3cf8 <__sfvwrite_r+0x37c>
    3aac:	1881200c 	andi	r2,r3,1152
    3ab0:	10009e1e 	bne	r2,zero,3d2c <__sfvwrite_r+0x3b0>
    3ab4:	81000017 	ldw	r4,0(r16)
    3ab8:	b80d883a 	mov	r6,r23
    3abc:	e00b883a 	mov	r5,fp
    3ac0:	00026380 	call	2638 <memmove>
    3ac4:	80c00217 	ldw	r3,8(r16)
    3ac8:	81000017 	ldw	r4,0(r16)
    3acc:	9005883a 	mov	r2,r18
    3ad0:	1ce7c83a 	sub	r19,r3,r19
    3ad4:	25cf883a 	add	r7,r4,r23
    3ad8:	84c00215 	stw	r19,8(r16)
    3adc:	81c00015 	stw	r7,0(r16)
    3ae0:	a0c00217 	ldw	r3,8(r20)
    3ae4:	e0b9883a 	add	fp,fp,r2
    3ae8:	90a5c83a 	sub	r18,r18,r2
    3aec:	18a7c83a 	sub	r19,r3,r2
    3af0:	a4c00215 	stw	r19,8(r20)
    3af4:	983fce26 	beq	r19,zero,3a30 <__sfvwrite_r+0xb4>
    3af8:	80c0030b 	ldhu	r3,12(r16)
    3afc:	903fe61e 	bne	r18,zero,3a98 <__sfvwrite_r+0x11c>
    3b00:	8f000017 	ldw	fp,0(r17)
    3b04:	8c800117 	ldw	r18,4(r17)
    3b08:	8c400204 	addi	r17,r17,8
    3b0c:	003fe106 	br	3a94 <__sfvwrite_r+0x118>
    3b10:	8cc00017 	ldw	r19,0(r17)
    3b14:	8c800117 	ldw	r18,4(r17)
    3b18:	8c400204 	addi	r17,r17,8
    3b1c:	003fb306 	br	39ec <__sfvwrite_r+0x70>
    3b20:	0005883a 	mov	r2,zero
    3b24:	f800283a 	ret
    3b28:	81000017 	ldw	r4,0(r16)
    3b2c:	80800417 	ldw	r2,16(r16)
    3b30:	11005736 	bltu	r2,r4,3c90 <__sfvwrite_r+0x314>
    3b34:	85c00517 	ldw	r23,20(r16)
    3b38:	95c05536 	bltu	r18,r23,3c90 <__sfvwrite_r+0x314>
    3b3c:	00a00034 	movhi	r2,32768
    3b40:	10bfffc4 	addi	r2,r2,-1
    3b44:	9009883a 	mov	r4,r18
    3b48:	1480012e 	bgeu	r2,r18,3b50 <__sfvwrite_r+0x1d4>
    3b4c:	1009883a 	mov	r4,r2
    3b50:	b80b883a 	mov	r5,r23
    3b54:	00075bc0 	call	75bc <__divsi3>
    3b58:	15cf383a 	mul	r7,r2,r23
    3b5c:	81400717 	ldw	r5,28(r16)
    3b60:	80800917 	ldw	r2,36(r16)
    3b64:	e00d883a 	mov	r6,fp
    3b68:	a809883a 	mov	r4,r21
    3b6c:	103ee83a 	callr	r2
    3b70:	00bfdb16 	blt	zero,r2,3ae0 <__sfvwrite_r+0x164>
    3b74:	8080030b 	ldhu	r2,12(r16)
    3b78:	10801014 	ori	r2,r2,64
    3b7c:	8080030d 	sth	r2,12(r16)
    3b80:	00bfffc4 	movi	r2,-1
    3b84:	003fab06 	br	3a34 <__sfvwrite_r+0xb8>
    3b88:	0027883a 	mov	r19,zero
    3b8c:	0011883a 	mov	r8,zero
    3b90:	0039883a 	mov	fp,zero
    3b94:	0025883a 	mov	r18,zero
    3b98:	90001f26 	beq	r18,zero,3c18 <__sfvwrite_r+0x29c>
    3b9c:	40005a26 	beq	r8,zero,3d08 <__sfvwrite_r+0x38c>
    3ba0:	982d883a 	mov	r22,r19
    3ba4:	94c0012e 	bgeu	r18,r19,3bac <__sfvwrite_r+0x230>
    3ba8:	902d883a 	mov	r22,r18
    3bac:	81000017 	ldw	r4,0(r16)
    3bb0:	80800417 	ldw	r2,16(r16)
    3bb4:	b02f883a 	mov	r23,r22
    3bb8:	81c00517 	ldw	r7,20(r16)
    3bbc:	1100032e 	bgeu	r2,r4,3bcc <__sfvwrite_r+0x250>
    3bc0:	80c00217 	ldw	r3,8(r16)
    3bc4:	38c7883a 	add	r3,r7,r3
    3bc8:	1d801816 	blt	r3,r22,3c2c <__sfvwrite_r+0x2b0>
    3bcc:	b1c03e16 	blt	r22,r7,3cc8 <__sfvwrite_r+0x34c>
    3bd0:	80800917 	ldw	r2,36(r16)
    3bd4:	81400717 	ldw	r5,28(r16)
    3bd8:	e00d883a 	mov	r6,fp
    3bdc:	da000115 	stw	r8,4(sp)
    3be0:	a809883a 	mov	r4,r21
    3be4:	103ee83a 	callr	r2
    3be8:	102f883a 	mov	r23,r2
    3bec:	da000117 	ldw	r8,4(sp)
    3bf0:	00bfe00e 	bge	zero,r2,3b74 <__sfvwrite_r+0x1f8>
    3bf4:	9de7c83a 	sub	r19,r19,r23
    3bf8:	98001f26 	beq	r19,zero,3c78 <__sfvwrite_r+0x2fc>
    3bfc:	a0800217 	ldw	r2,8(r20)
    3c00:	e5f9883a 	add	fp,fp,r23
    3c04:	95e5c83a 	sub	r18,r18,r23
    3c08:	15efc83a 	sub	r23,r2,r23
    3c0c:	a5c00215 	stw	r23,8(r20)
    3c10:	b83f8726 	beq	r23,zero,3a30 <__sfvwrite_r+0xb4>
    3c14:	903fe11e 	bne	r18,zero,3b9c <__sfvwrite_r+0x220>
    3c18:	8f000017 	ldw	fp,0(r17)
    3c1c:	8c800117 	ldw	r18,4(r17)
    3c20:	0011883a 	mov	r8,zero
    3c24:	8c400204 	addi	r17,r17,8
    3c28:	003fdb06 	br	3b98 <__sfvwrite_r+0x21c>
    3c2c:	180d883a 	mov	r6,r3
    3c30:	e00b883a 	mov	r5,fp
    3c34:	da000115 	stw	r8,4(sp)
    3c38:	d8c00015 	stw	r3,0(sp)
    3c3c:	00026380 	call	2638 <memmove>
    3c40:	d8c00017 	ldw	r3,0(sp)
    3c44:	80800017 	ldw	r2,0(r16)
    3c48:	800b883a 	mov	r5,r16
    3c4c:	a809883a 	mov	r4,r21
    3c50:	10c5883a 	add	r2,r2,r3
    3c54:	80800015 	stw	r2,0(r16)
    3c58:	d8c00015 	stw	r3,0(sp)
    3c5c:	00060540 	call	6054 <_fflush_r>
    3c60:	d8c00017 	ldw	r3,0(sp)
    3c64:	da000117 	ldw	r8,4(sp)
    3c68:	103fc21e 	bne	r2,zero,3b74 <__sfvwrite_r+0x1f8>
    3c6c:	182f883a 	mov	r23,r3
    3c70:	9de7c83a 	sub	r19,r19,r23
    3c74:	983fe11e 	bne	r19,zero,3bfc <__sfvwrite_r+0x280>
    3c78:	800b883a 	mov	r5,r16
    3c7c:	a809883a 	mov	r4,r21
    3c80:	00060540 	call	6054 <_fflush_r>
    3c84:	103fbb1e 	bne	r2,zero,3b74 <__sfvwrite_r+0x1f8>
    3c88:	0011883a 	mov	r8,zero
    3c8c:	003fdb06 	br	3bfc <__sfvwrite_r+0x280>
    3c90:	94c0012e 	bgeu	r18,r19,3c98 <__sfvwrite_r+0x31c>
    3c94:	9027883a 	mov	r19,r18
    3c98:	980d883a 	mov	r6,r19
    3c9c:	e00b883a 	mov	r5,fp
    3ca0:	00026380 	call	2638 <memmove>
    3ca4:	80800217 	ldw	r2,8(r16)
    3ca8:	80c00017 	ldw	r3,0(r16)
    3cac:	14c5c83a 	sub	r2,r2,r19
    3cb0:	1cc7883a 	add	r3,r3,r19
    3cb4:	80800215 	stw	r2,8(r16)
    3cb8:	80c00015 	stw	r3,0(r16)
    3cbc:	10004326 	beq	r2,zero,3dcc <__sfvwrite_r+0x450>
    3cc0:	9805883a 	mov	r2,r19
    3cc4:	003f8606 	br	3ae0 <__sfvwrite_r+0x164>
    3cc8:	b00d883a 	mov	r6,r22
    3ccc:	e00b883a 	mov	r5,fp
    3cd0:	da000115 	stw	r8,4(sp)
    3cd4:	00026380 	call	2638 <memmove>
    3cd8:	80800217 	ldw	r2,8(r16)
    3cdc:	80c00017 	ldw	r3,0(r16)
    3ce0:	da000117 	ldw	r8,4(sp)
    3ce4:	1585c83a 	sub	r2,r2,r22
    3ce8:	1dad883a 	add	r22,r3,r22
    3cec:	80800215 	stw	r2,8(r16)
    3cf0:	85800015 	stw	r22,0(r16)
    3cf4:	003fbf06 	br	3bf4 <__sfvwrite_r+0x278>
    3cf8:	81000017 	ldw	r4,0(r16)
    3cfc:	9027883a 	mov	r19,r18
    3d00:	902f883a 	mov	r23,r18
    3d04:	003f6c06 	br	3ab8 <__sfvwrite_r+0x13c>
    3d08:	900d883a 	mov	r6,r18
    3d0c:	01400284 	movi	r5,10
    3d10:	e009883a 	mov	r4,fp
    3d14:	0003fc00 	call	3fc0 <memchr>
    3d18:	10003e26 	beq	r2,zero,3e14 <__sfvwrite_r+0x498>
    3d1c:	10800044 	addi	r2,r2,1
    3d20:	1727c83a 	sub	r19,r2,fp
    3d24:	02000044 	movi	r8,1
    3d28:	003f9d06 	br	3ba0 <__sfvwrite_r+0x224>
    3d2c:	80800517 	ldw	r2,20(r16)
    3d30:	81400417 	ldw	r5,16(r16)
    3d34:	81c00017 	ldw	r7,0(r16)
    3d38:	10a7883a 	add	r19,r2,r2
    3d3c:	9885883a 	add	r2,r19,r2
    3d40:	1026d7fa 	srli	r19,r2,31
    3d44:	396dc83a 	sub	r22,r7,r5
    3d48:	b1000044 	addi	r4,r22,1
    3d4c:	9885883a 	add	r2,r19,r2
    3d50:	1027d07a 	srai	r19,r2,1
    3d54:	2485883a 	add	r2,r4,r18
    3d58:	980d883a 	mov	r6,r19
    3d5c:	9880022e 	bgeu	r19,r2,3d68 <__sfvwrite_r+0x3ec>
    3d60:	1027883a 	mov	r19,r2
    3d64:	100d883a 	mov	r6,r2
    3d68:	18c1000c 	andi	r3,r3,1024
    3d6c:	18001c26 	beq	r3,zero,3de0 <__sfvwrite_r+0x464>
    3d70:	300b883a 	mov	r5,r6
    3d74:	a809883a 	mov	r4,r21
    3d78:	0001c680 	call	1c68 <_malloc_r>
    3d7c:	102f883a 	mov	r23,r2
    3d80:	10002926 	beq	r2,zero,3e28 <__sfvwrite_r+0x4ac>
    3d84:	81400417 	ldw	r5,16(r16)
    3d88:	b00d883a 	mov	r6,r22
    3d8c:	1009883a 	mov	r4,r2
    3d90:	00024f00 	call	24f0 <memcpy>
    3d94:	8080030b 	ldhu	r2,12(r16)
    3d98:	00fedfc4 	movi	r3,-1153
    3d9c:	10c4703a 	and	r2,r2,r3
    3da0:	10802014 	ori	r2,r2,128
    3da4:	8080030d 	sth	r2,12(r16)
    3da8:	bd89883a 	add	r4,r23,r22
    3dac:	9d8fc83a 	sub	r7,r19,r22
    3db0:	85c00415 	stw	r23,16(r16)
    3db4:	84c00515 	stw	r19,20(r16)
    3db8:	81000015 	stw	r4,0(r16)
    3dbc:	9027883a 	mov	r19,r18
    3dc0:	81c00215 	stw	r7,8(r16)
    3dc4:	902f883a 	mov	r23,r18
    3dc8:	003f3b06 	br	3ab8 <__sfvwrite_r+0x13c>
    3dcc:	800b883a 	mov	r5,r16
    3dd0:	a809883a 	mov	r4,r21
    3dd4:	00060540 	call	6054 <_fflush_r>
    3dd8:	103fb926 	beq	r2,zero,3cc0 <__sfvwrite_r+0x344>
    3ddc:	003f6506 	br	3b74 <__sfvwrite_r+0x1f8>
    3de0:	a809883a 	mov	r4,r21
    3de4:	00029a80 	call	29a8 <_realloc_r>
    3de8:	102f883a 	mov	r23,r2
    3dec:	103fee1e 	bne	r2,zero,3da8 <__sfvwrite_r+0x42c>
    3df0:	81400417 	ldw	r5,16(r16)
    3df4:	a809883a 	mov	r4,r21
    3df8:	000366c0 	call	366c <_free_r>
    3dfc:	8080030b 	ldhu	r2,12(r16)
    3e00:	00ffdfc4 	movi	r3,-129
    3e04:	1884703a 	and	r2,r3,r2
    3e08:	00c00304 	movi	r3,12
    3e0c:	a8c00015 	stw	r3,0(r21)
    3e10:	003f5906 	br	3b78 <__sfvwrite_r+0x1fc>
    3e14:	94c00044 	addi	r19,r18,1
    3e18:	02000044 	movi	r8,1
    3e1c:	003f6006 	br	3ba0 <__sfvwrite_r+0x224>
    3e20:	00bfffc4 	movi	r2,-1
    3e24:	003f0306 	br	3a34 <__sfvwrite_r+0xb8>
    3e28:	00800304 	movi	r2,12
    3e2c:	a8800015 	stw	r2,0(r21)
    3e30:	8080030b 	ldhu	r2,12(r16)
    3e34:	003f5006 	br	3b78 <__sfvwrite_r+0x1fc>

00003e38 <_fwalk>:
    3e38:	defff704 	addi	sp,sp,-36
    3e3c:	dd000415 	stw	r20,16(sp)
    3e40:	dfc00815 	stw	ra,32(sp)
    3e44:	ddc00715 	stw	r23,28(sp)
    3e48:	dd800615 	stw	r22,24(sp)
    3e4c:	dd400515 	stw	r21,20(sp)
    3e50:	dcc00315 	stw	r19,12(sp)
    3e54:	dc800215 	stw	r18,8(sp)
    3e58:	dc400115 	stw	r17,4(sp)
    3e5c:	dc000015 	stw	r16,0(sp)
    3e60:	2500b804 	addi	r20,r4,736
    3e64:	a0002326 	beq	r20,zero,3ef4 <_fwalk+0xbc>
    3e68:	282b883a 	mov	r21,r5
    3e6c:	002f883a 	mov	r23,zero
    3e70:	05800044 	movi	r22,1
    3e74:	04ffffc4 	movi	r19,-1
    3e78:	a4400117 	ldw	r17,4(r20)
    3e7c:	a4800217 	ldw	r18,8(r20)
    3e80:	8c7fffc4 	addi	r17,r17,-1
    3e84:	88000d16 	blt	r17,zero,3ebc <_fwalk+0x84>
    3e88:	94000304 	addi	r16,r18,12
    3e8c:	94800384 	addi	r18,r18,14
    3e90:	8080000b 	ldhu	r2,0(r16)
    3e94:	8c7fffc4 	addi	r17,r17,-1
    3e98:	813ffd04 	addi	r4,r16,-12
    3e9c:	b080042e 	bgeu	r22,r2,3eb0 <_fwalk+0x78>
    3ea0:	9080000f 	ldh	r2,0(r18)
    3ea4:	14c00226 	beq	r2,r19,3eb0 <_fwalk+0x78>
    3ea8:	a83ee83a 	callr	r21
    3eac:	b8aeb03a 	or	r23,r23,r2
    3eb0:	84001a04 	addi	r16,r16,104
    3eb4:	94801a04 	addi	r18,r18,104
    3eb8:	8cfff51e 	bne	r17,r19,3e90 <_fwalk+0x58>
    3ebc:	a5000017 	ldw	r20,0(r20)
    3ec0:	a03fed1e 	bne	r20,zero,3e78 <_fwalk+0x40>
    3ec4:	b805883a 	mov	r2,r23
    3ec8:	dfc00817 	ldw	ra,32(sp)
    3ecc:	ddc00717 	ldw	r23,28(sp)
    3ed0:	dd800617 	ldw	r22,24(sp)
    3ed4:	dd400517 	ldw	r21,20(sp)
    3ed8:	dd000417 	ldw	r20,16(sp)
    3edc:	dcc00317 	ldw	r19,12(sp)
    3ee0:	dc800217 	ldw	r18,8(sp)
    3ee4:	dc400117 	ldw	r17,4(sp)
    3ee8:	dc000017 	ldw	r16,0(sp)
    3eec:	dec00904 	addi	sp,sp,36
    3ef0:	f800283a 	ret
    3ef4:	002f883a 	mov	r23,zero
    3ef8:	003ff206 	br	3ec4 <_fwalk+0x8c>

00003efc <_fwalk_reent>:
    3efc:	defff704 	addi	sp,sp,-36
    3f00:	dd000415 	stw	r20,16(sp)
    3f04:	dfc00815 	stw	ra,32(sp)
    3f08:	ddc00715 	stw	r23,28(sp)
    3f0c:	dd800615 	stw	r22,24(sp)
    3f10:	dd400515 	stw	r21,20(sp)
    3f14:	dcc00315 	stw	r19,12(sp)
    3f18:	dc800215 	stw	r18,8(sp)
    3f1c:	dc400115 	stw	r17,4(sp)
    3f20:	dc000015 	stw	r16,0(sp)
    3f24:	2500b804 	addi	r20,r4,736
    3f28:	a0002326 	beq	r20,zero,3fb8 <_fwalk_reent+0xbc>
    3f2c:	282b883a 	mov	r21,r5
    3f30:	2027883a 	mov	r19,r4
    3f34:	002f883a 	mov	r23,zero
    3f38:	05800044 	movi	r22,1
    3f3c:	04bfffc4 	movi	r18,-1
    3f40:	a4400117 	ldw	r17,4(r20)
    3f44:	a4000217 	ldw	r16,8(r20)
    3f48:	8c7fffc4 	addi	r17,r17,-1
    3f4c:	88000c16 	blt	r17,zero,3f80 <_fwalk_reent+0x84>
    3f50:	84000304 	addi	r16,r16,12
    3f54:	8080000b 	ldhu	r2,0(r16)
    3f58:	8c7fffc4 	addi	r17,r17,-1
    3f5c:	817ffd04 	addi	r5,r16,-12
    3f60:	b080052e 	bgeu	r22,r2,3f78 <_fwalk_reent+0x7c>
    3f64:	8080008f 	ldh	r2,2(r16)
    3f68:	9809883a 	mov	r4,r19
    3f6c:	14800226 	beq	r2,r18,3f78 <_fwalk_reent+0x7c>
    3f70:	a83ee83a 	callr	r21
    3f74:	b8aeb03a 	or	r23,r23,r2
    3f78:	84001a04 	addi	r16,r16,104
    3f7c:	8cbff51e 	bne	r17,r18,3f54 <_fwalk_reent+0x58>
    3f80:	a5000017 	ldw	r20,0(r20)
    3f84:	a03fee1e 	bne	r20,zero,3f40 <_fwalk_reent+0x44>
    3f88:	b805883a 	mov	r2,r23
    3f8c:	dfc00817 	ldw	ra,32(sp)
    3f90:	ddc00717 	ldw	r23,28(sp)
    3f94:	dd800617 	ldw	r22,24(sp)
    3f98:	dd400517 	ldw	r21,20(sp)
    3f9c:	dd000417 	ldw	r20,16(sp)
    3fa0:	dcc00317 	ldw	r19,12(sp)
    3fa4:	dc800217 	ldw	r18,8(sp)
    3fa8:	dc400117 	ldw	r17,4(sp)
    3fac:	dc000017 	ldw	r16,0(sp)
    3fb0:	dec00904 	addi	sp,sp,36
    3fb4:	f800283a 	ret
    3fb8:	002f883a 	mov	r23,zero
    3fbc:	003ff206 	br	3f88 <_fwalk_reent+0x8c>

00003fc0 <memchr>:
    3fc0:	208000cc 	andi	r2,r4,3
    3fc4:	280f883a 	mov	r7,r5
    3fc8:	10003426 	beq	r2,zero,409c <memchr+0xdc>
    3fcc:	30bfffc4 	addi	r2,r6,-1
    3fd0:	30001a26 	beq	r6,zero,403c <memchr+0x7c>
    3fd4:	20c00003 	ldbu	r3,0(r4)
    3fd8:	29803fcc 	andi	r6,r5,255
    3fdc:	30c0051e 	bne	r6,r3,3ff4 <memchr+0x34>
    3fe0:	00001806 	br	4044 <memchr+0x84>
    3fe4:	10001526 	beq	r2,zero,403c <memchr+0x7c>
    3fe8:	20c00003 	ldbu	r3,0(r4)
    3fec:	10bfffc4 	addi	r2,r2,-1
    3ff0:	30c01426 	beq	r6,r3,4044 <memchr+0x84>
    3ff4:	21000044 	addi	r4,r4,1
    3ff8:	20c000cc 	andi	r3,r4,3
    3ffc:	183ff91e 	bne	r3,zero,3fe4 <memchr+0x24>
    4000:	020000c4 	movi	r8,3
    4004:	40801136 	bltu	r8,r2,404c <memchr+0x8c>
    4008:	10000c26 	beq	r2,zero,403c <memchr+0x7c>
    400c:	20c00003 	ldbu	r3,0(r4)
    4010:	29403fcc 	andi	r5,r5,255
    4014:	28c00b26 	beq	r5,r3,4044 <memchr+0x84>
    4018:	20c00044 	addi	r3,r4,1
    401c:	39803fcc 	andi	r6,r7,255
    4020:	2089883a 	add	r4,r4,r2
    4024:	00000306 	br	4034 <memchr+0x74>
    4028:	18c00044 	addi	r3,r3,1
    402c:	197fffc3 	ldbu	r5,-1(r3)
    4030:	31400526 	beq	r6,r5,4048 <memchr+0x88>
    4034:	1805883a 	mov	r2,r3
    4038:	20fffb1e 	bne	r4,r3,4028 <memchr+0x68>
    403c:	0005883a 	mov	r2,zero
    4040:	f800283a 	ret
    4044:	2005883a 	mov	r2,r4
    4048:	f800283a 	ret
    404c:	28c03fcc 	andi	r3,r5,255
    4050:	1812923a 	slli	r9,r3,8
    4054:	02ffbff4 	movhi	r11,65279
    4058:	02a02074 	movhi	r10,32897
    405c:	48d2b03a 	or	r9,r9,r3
    4060:	4806943a 	slli	r3,r9,16
    4064:	5affbfc4 	addi	r11,r11,-257
    4068:	52a02004 	addi	r10,r10,-32640
    406c:	48d2b03a 	or	r9,r9,r3
    4070:	20c00017 	ldw	r3,0(r4)
    4074:	48c6f03a 	xor	r3,r9,r3
    4078:	1acd883a 	add	r6,r3,r11
    407c:	00c6303a 	nor	r3,zero,r3
    4080:	30c6703a 	and	r3,r6,r3
    4084:	1a86703a 	and	r3,r3,r10
    4088:	183fe01e 	bne	r3,zero,400c <memchr+0x4c>
    408c:	10bfff04 	addi	r2,r2,-4
    4090:	21000104 	addi	r4,r4,4
    4094:	40bff636 	bltu	r8,r2,4070 <memchr+0xb0>
    4098:	003fdb06 	br	4008 <memchr+0x48>
    409c:	3005883a 	mov	r2,r6
    40a0:	003fd706 	br	4000 <memchr+0x40>

000040a4 <_init_signal_r>:
    40a4:	2080b717 	ldw	r2,732(r4)
    40a8:	10000226 	beq	r2,zero,40b4 <_init_signal_r+0x10>
    40ac:	0005883a 	mov	r2,zero
    40b0:	f800283a 	ret
    40b4:	defffe04 	addi	sp,sp,-8
    40b8:	01402004 	movi	r5,128
    40bc:	dc000015 	stw	r16,0(sp)
    40c0:	dfc00115 	stw	ra,4(sp)
    40c4:	2021883a 	mov	r16,r4
    40c8:	0001c680 	call	1c68 <_malloc_r>
    40cc:	8080b715 	stw	r2,732(r16)
    40d0:	10000d26 	beq	r2,zero,4108 <_init_signal_r+0x64>
    40d4:	0007883a 	mov	r3,zero
    40d8:	01002004 	movi	r4,128
    40dc:	00000106 	br	40e4 <_init_signal_r+0x40>
    40e0:	8080b717 	ldw	r2,732(r16)
    40e4:	10c5883a 	add	r2,r2,r3
    40e8:	10000015 	stw	zero,0(r2)
    40ec:	18c00104 	addi	r3,r3,4
    40f0:	193ffb1e 	bne	r3,r4,40e0 <_init_signal_r+0x3c>
    40f4:	0005883a 	mov	r2,zero
    40f8:	dfc00117 	ldw	ra,4(sp)
    40fc:	dc000017 	ldw	r16,0(sp)
    4100:	dec00204 	addi	sp,sp,8
    4104:	f800283a 	ret
    4108:	00bfffc4 	movi	r2,-1
    410c:	003ffa06 	br	40f8 <_init_signal_r+0x54>

00004110 <_signal_r>:
    4110:	00c007c4 	movi	r3,31
    4114:	19401536 	bltu	r3,r5,416c <_signal_r+0x5c>
    4118:	2080b717 	ldw	r2,732(r4)
    411c:	defffc04 	addi	sp,sp,-16
    4120:	dc800215 	stw	r18,8(sp)
    4124:	dc400115 	stw	r17,4(sp)
    4128:	dc000015 	stw	r16,0(sp)
    412c:	dfc00315 	stw	ra,12(sp)
    4130:	3023883a 	mov	r17,r6
    4134:	2021883a 	mov	r16,r4
    4138:	2825883a 	mov	r18,r5
    413c:	10000f26 	beq	r2,zero,417c <_signal_r+0x6c>
    4140:	948b883a 	add	r5,r18,r18
    4144:	294b883a 	add	r5,r5,r5
    4148:	114b883a 	add	r5,r2,r5
    414c:	28800017 	ldw	r2,0(r5)
    4150:	2c400015 	stw	r17,0(r5)
    4154:	dfc00317 	ldw	ra,12(sp)
    4158:	dc800217 	ldw	r18,8(sp)
    415c:	dc400117 	ldw	r17,4(sp)
    4160:	dc000017 	ldw	r16,0(sp)
    4164:	dec00404 	addi	sp,sp,16
    4168:	f800283a 	ret
    416c:	00c00584 	movi	r3,22
    4170:	20c00015 	stw	r3,0(r4)
    4174:	00bfffc4 	movi	r2,-1
    4178:	f800283a 	ret
    417c:	00040a40 	call	40a4 <_init_signal_r>
    4180:	1000021e 	bne	r2,zero,418c <_signal_r+0x7c>
    4184:	8080b717 	ldw	r2,732(r16)
    4188:	003fed06 	br	4140 <_signal_r+0x30>
    418c:	00bfffc4 	movi	r2,-1
    4190:	003ff006 	br	4154 <_signal_r+0x44>

00004194 <_raise_r>:
    4194:	008007c4 	movi	r2,31
    4198:	11402936 	bltu	r2,r5,4240 <_raise_r+0xac>
    419c:	20c0b717 	ldw	r3,732(r4)
    41a0:	defffd04 	addi	sp,sp,-12
    41a4:	dc400115 	stw	r17,4(sp)
    41a8:	dc000015 	stw	r16,0(sp)
    41ac:	dfc00215 	stw	ra,8(sp)
    41b0:	2021883a 	mov	r16,r4
    41b4:	2823883a 	mov	r17,r5
    41b8:	18001726 	beq	r3,zero,4218 <_raise_r+0x84>
    41bc:	2945883a 	add	r2,r5,r5
    41c0:	1085883a 	add	r2,r2,r2
    41c4:	1887883a 	add	r3,r3,r2
    41c8:	19800017 	ldw	r6,0(r3)
    41cc:	30001226 	beq	r6,zero,4218 <_raise_r+0x84>
    41d0:	00800044 	movi	r2,1
    41d4:	30800e26 	beq	r6,r2,4210 <_raise_r+0x7c>
    41d8:	013fffc4 	movi	r4,-1
    41dc:	31000926 	beq	r6,r4,4204 <_raise_r+0x70>
    41e0:	18000015 	stw	zero,0(r3)
    41e4:	2809883a 	mov	r4,r5
    41e8:	303ee83a 	callr	r6
    41ec:	0005883a 	mov	r2,zero
    41f0:	dfc00217 	ldw	ra,8(sp)
    41f4:	dc400117 	ldw	r17,4(sp)
    41f8:	dc000017 	ldw	r16,0(sp)
    41fc:	dec00304 	addi	sp,sp,12
    4200:	f800283a 	ret
    4204:	00c00584 	movi	r3,22
    4208:	80c00015 	stw	r3,0(r16)
    420c:	003ff806 	br	41f0 <_raise_r+0x5c>
    4210:	0005883a 	mov	r2,zero
    4214:	003ff606 	br	41f0 <_raise_r+0x5c>
    4218:	8009883a 	mov	r4,r16
    421c:	00043a40 	call	43a4 <_getpid_r>
    4220:	880d883a 	mov	r6,r17
    4224:	100b883a 	mov	r5,r2
    4228:	8009883a 	mov	r4,r16
    422c:	dfc00217 	ldw	ra,8(sp)
    4230:	dc400117 	ldw	r17,4(sp)
    4234:	dc000017 	ldw	r16,0(sp)
    4238:	dec00304 	addi	sp,sp,12
    423c:	00043481 	jmpi	4348 <_kill_r>
    4240:	00800584 	movi	r2,22
    4244:	20800015 	stw	r2,0(r4)
    4248:	00bfffc4 	movi	r2,-1
    424c:	f800283a 	ret

00004250 <__sigtramp_r>:
    4250:	008007c4 	movi	r2,31
    4254:	11402436 	bltu	r2,r5,42e8 <__sigtramp_r+0x98>
    4258:	20c0b717 	ldw	r3,732(r4)
    425c:	defffd04 	addi	sp,sp,-12
    4260:	dc400115 	stw	r17,4(sp)
    4264:	dc000015 	stw	r16,0(sp)
    4268:	dfc00215 	stw	ra,8(sp)
    426c:	2021883a 	mov	r16,r4
    4270:	2823883a 	mov	r17,r5
    4274:	18001826 	beq	r3,zero,42d8 <__sigtramp_r+0x88>
    4278:	8c45883a 	add	r2,r17,r17
    427c:	1085883a 	add	r2,r2,r2
    4280:	1885883a 	add	r2,r3,r2
    4284:	10c00017 	ldw	r3,0(r2)
    4288:	18001126 	beq	r3,zero,42d0 <__sigtramp_r+0x80>
    428c:	013fffc4 	movi	r4,-1
    4290:	19000d26 	beq	r3,r4,42c8 <__sigtramp_r+0x78>
    4294:	01000044 	movi	r4,1
    4298:	19000926 	beq	r3,r4,42c0 <__sigtramp_r+0x70>
    429c:	10000015 	stw	zero,0(r2)
    42a0:	8809883a 	mov	r4,r17
    42a4:	183ee83a 	callr	r3
    42a8:	0005883a 	mov	r2,zero
    42ac:	dfc00217 	ldw	ra,8(sp)
    42b0:	dc400117 	ldw	r17,4(sp)
    42b4:	dc000017 	ldw	r16,0(sp)
    42b8:	dec00304 	addi	sp,sp,12
    42bc:	f800283a 	ret
    42c0:	008000c4 	movi	r2,3
    42c4:	003ff906 	br	42ac <__sigtramp_r+0x5c>
    42c8:	00800084 	movi	r2,2
    42cc:	003ff706 	br	42ac <__sigtramp_r+0x5c>
    42d0:	00800044 	movi	r2,1
    42d4:	003ff506 	br	42ac <__sigtramp_r+0x5c>
    42d8:	00040a40 	call	40a4 <_init_signal_r>
    42dc:	1000041e 	bne	r2,zero,42f0 <__sigtramp_r+0xa0>
    42e0:	80c0b717 	ldw	r3,732(r16)
    42e4:	003fe406 	br	4278 <__sigtramp_r+0x28>
    42e8:	00bfffc4 	movi	r2,-1
    42ec:	f800283a 	ret
    42f0:	00bfffc4 	movi	r2,-1
    42f4:	003fed06 	br	42ac <__sigtramp_r+0x5c>

000042f8 <raise>:
    42f8:	00800074 	movhi	r2,1
    42fc:	10af2c04 	addi	r2,r2,-17232
    4300:	200b883a 	mov	r5,r4
    4304:	11000017 	ldw	r4,0(r2)
    4308:	00041941 	jmpi	4194 <_raise_r>

0000430c <signal>:
    430c:	00800074 	movhi	r2,1
    4310:	10af2c04 	addi	r2,r2,-17232
    4314:	280d883a 	mov	r6,r5
    4318:	200b883a 	mov	r5,r4
    431c:	11000017 	ldw	r4,0(r2)
    4320:	00041101 	jmpi	4110 <_signal_r>

00004324 <_init_signal>:
    4324:	00800074 	movhi	r2,1
    4328:	10af2c04 	addi	r2,r2,-17232
    432c:	11000017 	ldw	r4,0(r2)
    4330:	00040a41 	jmpi	40a4 <_init_signal_r>

00004334 <__sigtramp>:
    4334:	00800074 	movhi	r2,1
    4338:	10af2c04 	addi	r2,r2,-17232
    433c:	200b883a 	mov	r5,r4
    4340:	11000017 	ldw	r4,0(r2)
    4344:	00042501 	jmpi	4250 <__sigtramp_r>

00004348 <_kill_r>:
    4348:	defffd04 	addi	sp,sp,-12
    434c:	2805883a 	mov	r2,r5
    4350:	dc000015 	stw	r16,0(sp)
    4354:	04000074 	movhi	r16,1
    4358:	dc400115 	stw	r17,4(sp)
    435c:	8435fa04 	addi	r16,r16,-10264
    4360:	2023883a 	mov	r17,r4
    4364:	300b883a 	mov	r5,r6
    4368:	1009883a 	mov	r4,r2
    436c:	dfc00215 	stw	ra,8(sp)
    4370:	80000015 	stw	zero,0(r16)
    4374:	0007b7c0 	call	7b7c <kill>
    4378:	00ffffc4 	movi	r3,-1
    437c:	10c00526 	beq	r2,r3,4394 <_kill_r+0x4c>
    4380:	dfc00217 	ldw	ra,8(sp)
    4384:	dc400117 	ldw	r17,4(sp)
    4388:	dc000017 	ldw	r16,0(sp)
    438c:	dec00304 	addi	sp,sp,12
    4390:	f800283a 	ret
    4394:	80c00017 	ldw	r3,0(r16)
    4398:	183ff926 	beq	r3,zero,4380 <_kill_r+0x38>
    439c:	88c00015 	stw	r3,0(r17)
    43a0:	003ff706 	br	4380 <_kill_r+0x38>

000043a4 <_getpid_r>:
    43a4:	0007a401 	jmpi	7a40 <getpid>

000043a8 <__sread>:
    43a8:	defffe04 	addi	sp,sp,-8
    43ac:	dc000015 	stw	r16,0(sp)
    43b0:	2821883a 	mov	r16,r5
    43b4:	2940038f 	ldh	r5,14(r5)
    43b8:	dfc00115 	stw	ra,4(sp)
    43bc:	00065e00 	call	65e0 <_read_r>
    43c0:	10000716 	blt	r2,zero,43e0 <__sread+0x38>
    43c4:	80c01417 	ldw	r3,80(r16)
    43c8:	1887883a 	add	r3,r3,r2
    43cc:	80c01415 	stw	r3,80(r16)
    43d0:	dfc00117 	ldw	ra,4(sp)
    43d4:	dc000017 	ldw	r16,0(sp)
    43d8:	dec00204 	addi	sp,sp,8
    43dc:	f800283a 	ret
    43e0:	80c0030b 	ldhu	r3,12(r16)
    43e4:	18fbffcc 	andi	r3,r3,61439
    43e8:	80c0030d 	sth	r3,12(r16)
    43ec:	dfc00117 	ldw	ra,4(sp)
    43f0:	dc000017 	ldw	r16,0(sp)
    43f4:	dec00204 	addi	sp,sp,8
    43f8:	f800283a 	ret

000043fc <__seofread>:
    43fc:	0005883a 	mov	r2,zero
    4400:	f800283a 	ret

00004404 <__swrite>:
    4404:	2880030b 	ldhu	r2,12(r5)
    4408:	defffb04 	addi	sp,sp,-20
    440c:	dcc00315 	stw	r19,12(sp)
    4410:	dc800215 	stw	r18,8(sp)
    4414:	dc400115 	stw	r17,4(sp)
    4418:	dc000015 	stw	r16,0(sp)
    441c:	dfc00415 	stw	ra,16(sp)
    4420:	10c0400c 	andi	r3,r2,256
    4424:	2821883a 	mov	r16,r5
    4428:	2023883a 	mov	r17,r4
    442c:	3025883a 	mov	r18,r6
    4430:	3827883a 	mov	r19,r7
    4434:	18000526 	beq	r3,zero,444c <__swrite+0x48>
    4438:	2940038f 	ldh	r5,14(r5)
    443c:	01c00084 	movi	r7,2
    4440:	000d883a 	mov	r6,zero
    4444:	00063c40 	call	63c4 <_lseek_r>
    4448:	8080030b 	ldhu	r2,12(r16)
    444c:	8140038f 	ldh	r5,14(r16)
    4450:	10bbffcc 	andi	r2,r2,61439
    4454:	980f883a 	mov	r7,r19
    4458:	900d883a 	mov	r6,r18
    445c:	8809883a 	mov	r4,r17
    4460:	8080030d 	sth	r2,12(r16)
    4464:	dfc00417 	ldw	ra,16(sp)
    4468:	dcc00317 	ldw	r19,12(sp)
    446c:	dc800217 	ldw	r18,8(sp)
    4470:	dc400117 	ldw	r17,4(sp)
    4474:	dc000017 	ldw	r16,0(sp)
    4478:	dec00504 	addi	sp,sp,20
    447c:	0005b2c1 	jmpi	5b2c <_write_r>

00004480 <__sseek>:
    4480:	defffe04 	addi	sp,sp,-8
    4484:	dc000015 	stw	r16,0(sp)
    4488:	2821883a 	mov	r16,r5
    448c:	2940038f 	ldh	r5,14(r5)
    4490:	dfc00115 	stw	ra,4(sp)
    4494:	00063c40 	call	63c4 <_lseek_r>
    4498:	00ffffc4 	movi	r3,-1
    449c:	10c00826 	beq	r2,r3,44c0 <__sseek+0x40>
    44a0:	80c0030b 	ldhu	r3,12(r16)
    44a4:	80801415 	stw	r2,80(r16)
    44a8:	18c40014 	ori	r3,r3,4096
    44ac:	80c0030d 	sth	r3,12(r16)
    44b0:	dfc00117 	ldw	ra,4(sp)
    44b4:	dc000017 	ldw	r16,0(sp)
    44b8:	dec00204 	addi	sp,sp,8
    44bc:	f800283a 	ret
    44c0:	80c0030b 	ldhu	r3,12(r16)
    44c4:	18fbffcc 	andi	r3,r3,61439
    44c8:	80c0030d 	sth	r3,12(r16)
    44cc:	dfc00117 	ldw	ra,4(sp)
    44d0:	dc000017 	ldw	r16,0(sp)
    44d4:	dec00204 	addi	sp,sp,8
    44d8:	f800283a 	ret

000044dc <__sclose>:
    44dc:	2940038f 	ldh	r5,14(r5)
    44e0:	0005ce01 	jmpi	5ce0 <_close_r>

000044e4 <__sprint_r.part.0>:
    44e4:	28801917 	ldw	r2,100(r5)
    44e8:	defff604 	addi	sp,sp,-40
    44ec:	dd400515 	stw	r21,20(sp)
    44f0:	dfc00915 	stw	ra,36(sp)
    44f4:	df000815 	stw	fp,32(sp)
    44f8:	ddc00715 	stw	r23,28(sp)
    44fc:	dd800615 	stw	r22,24(sp)
    4500:	dd000415 	stw	r20,16(sp)
    4504:	dcc00315 	stw	r19,12(sp)
    4508:	dc800215 	stw	r18,8(sp)
    450c:	dc400115 	stw	r17,4(sp)
    4510:	dc000015 	stw	r16,0(sp)
    4514:	1088000c 	andi	r2,r2,8192
    4518:	302b883a 	mov	r21,r6
    451c:	10002e26 	beq	r2,zero,45d8 <__sprint_r.part.0+0xf4>
    4520:	30800217 	ldw	r2,8(r6)
    4524:	35800017 	ldw	r22,0(r6)
    4528:	10002926 	beq	r2,zero,45d0 <__sprint_r.part.0+0xec>
    452c:	2827883a 	mov	r19,r5
    4530:	2029883a 	mov	r20,r4
    4534:	b5c00104 	addi	r23,r22,4
    4538:	04bfffc4 	movi	r18,-1
    453c:	bc400017 	ldw	r17,0(r23)
    4540:	b4000017 	ldw	r16,0(r22)
    4544:	0039883a 	mov	fp,zero
    4548:	8822d0ba 	srli	r17,r17,2
    454c:	8800031e 	bne	r17,zero,455c <__sprint_r.part.0+0x78>
    4550:	00001806 	br	45b4 <__sprint_r.part.0+0xd0>
    4554:	84000104 	addi	r16,r16,4
    4558:	8f001526 	beq	r17,fp,45b0 <__sprint_r.part.0+0xcc>
    455c:	81400017 	ldw	r5,0(r16)
    4560:	980d883a 	mov	r6,r19
    4564:	a009883a 	mov	r4,r20
    4568:	00062440 	call	6244 <_fputwc_r>
    456c:	e7000044 	addi	fp,fp,1
    4570:	14bff81e 	bne	r2,r18,4554 <__sprint_r.part.0+0x70>
    4574:	9005883a 	mov	r2,r18
    4578:	a8000215 	stw	zero,8(r21)
    457c:	a8000115 	stw	zero,4(r21)
    4580:	dfc00917 	ldw	ra,36(sp)
    4584:	df000817 	ldw	fp,32(sp)
    4588:	ddc00717 	ldw	r23,28(sp)
    458c:	dd800617 	ldw	r22,24(sp)
    4590:	dd400517 	ldw	r21,20(sp)
    4594:	dd000417 	ldw	r20,16(sp)
    4598:	dcc00317 	ldw	r19,12(sp)
    459c:	dc800217 	ldw	r18,8(sp)
    45a0:	dc400117 	ldw	r17,4(sp)
    45a4:	dc000017 	ldw	r16,0(sp)
    45a8:	dec00a04 	addi	sp,sp,40
    45ac:	f800283a 	ret
    45b0:	a8800217 	ldw	r2,8(r21)
    45b4:	8c63883a 	add	r17,r17,r17
    45b8:	8c63883a 	add	r17,r17,r17
    45bc:	1445c83a 	sub	r2,r2,r17
    45c0:	a8800215 	stw	r2,8(r21)
    45c4:	b5800204 	addi	r22,r22,8
    45c8:	bdc00204 	addi	r23,r23,8
    45cc:	103fdb1e 	bne	r2,zero,453c <__sprint_r.part.0+0x58>
    45d0:	0005883a 	mov	r2,zero
    45d4:	003fe806 	br	4578 <__sprint_r.part.0+0x94>
    45d8:	000397c0 	call	397c <__sfvwrite_r>
    45dc:	003fe606 	br	4578 <__sprint_r.part.0+0x94>

000045e0 <__sprint_r>:
    45e0:	30c00217 	ldw	r3,8(r6)
    45e4:	18000126 	beq	r3,zero,45ec <__sprint_r+0xc>
    45e8:	00044e41 	jmpi	44e4 <__sprint_r.part.0>
    45ec:	30000115 	stw	zero,4(r6)
    45f0:	0005883a 	mov	r2,zero
    45f4:	f800283a 	ret

000045f8 <___vfiprintf_internal_r>:
    45f8:	deffc904 	addi	sp,sp,-220
    45fc:	df003515 	stw	fp,212(sp)
    4600:	dd003115 	stw	r20,196(sp)
    4604:	dfc03615 	stw	ra,216(sp)
    4608:	ddc03415 	stw	r23,208(sp)
    460c:	dd803315 	stw	r22,204(sp)
    4610:	dd403215 	stw	r21,200(sp)
    4614:	dcc03015 	stw	r19,192(sp)
    4618:	dc802f15 	stw	r18,188(sp)
    461c:	dc402e15 	stw	r17,184(sp)
    4620:	dc002d15 	stw	r16,180(sp)
    4624:	d9002015 	stw	r4,128(sp)
    4628:	d9c02215 	stw	r7,136(sp)
    462c:	2829883a 	mov	r20,r5
    4630:	3039883a 	mov	fp,r6
    4634:	20000226 	beq	r4,zero,4640 <___vfiprintf_internal_r+0x48>
    4638:	20800e17 	ldw	r2,56(r4)
    463c:	1000cf26 	beq	r2,zero,497c <___vfiprintf_internal_r+0x384>
    4640:	a080030b 	ldhu	r2,12(r20)
    4644:	10c8000c 	andi	r3,r2,8192
    4648:	1800061e 	bne	r3,zero,4664 <___vfiprintf_internal_r+0x6c>
    464c:	a1001917 	ldw	r4,100(r20)
    4650:	00f7ffc4 	movi	r3,-8193
    4654:	10880014 	ori	r2,r2,8192
    4658:	20c6703a 	and	r3,r4,r3
    465c:	a080030d 	sth	r2,12(r20)
    4660:	a0c01915 	stw	r3,100(r20)
    4664:	10c0020c 	andi	r3,r2,8
    4668:	1800a926 	beq	r3,zero,4910 <___vfiprintf_internal_r+0x318>
    466c:	a0c00417 	ldw	r3,16(r20)
    4670:	1800a726 	beq	r3,zero,4910 <___vfiprintf_internal_r+0x318>
    4674:	1080068c 	andi	r2,r2,26
    4678:	00c00284 	movi	r3,10
    467c:	10c0ac26 	beq	r2,r3,4930 <___vfiprintf_internal_r+0x338>
    4680:	da801a04 	addi	r10,sp,104
    4684:	da801e15 	stw	r10,120(sp)
    4688:	d8801e17 	ldw	r2,120(sp)
    468c:	da8019c4 	addi	r10,sp,103
    4690:	05800074 	movhi	r22,1
    4694:	05c00074 	movhi	r23,1
    4698:	da801f15 	stw	r10,124(sp)
    469c:	1295c83a 	sub	r10,r2,r10
    46a0:	b5a82cc4 	addi	r22,r22,-24397
    46a4:	bde828c4 	addi	r23,r23,-24413
    46a8:	dec01a15 	stw	sp,104(sp)
    46ac:	d8001c15 	stw	zero,112(sp)
    46b0:	d8001b15 	stw	zero,108(sp)
    46b4:	d8002615 	stw	zero,152(sp)
    46b8:	d8002315 	stw	zero,140(sp)
    46bc:	da802715 	stw	r10,156(sp)
    46c0:	d811883a 	mov	r8,sp
    46c4:	dd002115 	stw	r20,132(sp)
    46c8:	e021883a 	mov	r16,fp
    46cc:	80800007 	ldb	r2,0(r16)
    46d0:	1003ea26 	beq	r2,zero,567c <___vfiprintf_internal_r+0x1084>
    46d4:	00c00944 	movi	r3,37
    46d8:	8025883a 	mov	r18,r16
    46dc:	10c0021e 	bne	r2,r3,46e8 <___vfiprintf_internal_r+0xf0>
    46e0:	00001606 	br	473c <___vfiprintf_internal_r+0x144>
    46e4:	10c00326 	beq	r2,r3,46f4 <___vfiprintf_internal_r+0xfc>
    46e8:	94800044 	addi	r18,r18,1
    46ec:	90800007 	ldb	r2,0(r18)
    46f0:	103ffc1e 	bne	r2,zero,46e4 <___vfiprintf_internal_r+0xec>
    46f4:	9423c83a 	sub	r17,r18,r16
    46f8:	88001026 	beq	r17,zero,473c <___vfiprintf_internal_r+0x144>
    46fc:	d8c01c17 	ldw	r3,112(sp)
    4700:	d8801b17 	ldw	r2,108(sp)
    4704:	44000015 	stw	r16,0(r8)
    4708:	88c7883a 	add	r3,r17,r3
    470c:	10800044 	addi	r2,r2,1
    4710:	44400115 	stw	r17,4(r8)
    4714:	d8c01c15 	stw	r3,112(sp)
    4718:	d8801b15 	stw	r2,108(sp)
    471c:	010001c4 	movi	r4,7
    4720:	2080760e 	bge	r4,r2,48fc <___vfiprintf_internal_r+0x304>
    4724:	1803821e 	bne	r3,zero,5530 <___vfiprintf_internal_r+0xf38>
    4728:	da802317 	ldw	r10,140(sp)
    472c:	d8001b15 	stw	zero,108(sp)
    4730:	d811883a 	mov	r8,sp
    4734:	5455883a 	add	r10,r10,r17
    4738:	da802315 	stw	r10,140(sp)
    473c:	90800007 	ldb	r2,0(r18)
    4740:	10044626 	beq	r2,zero,585c <___vfiprintf_internal_r+0x1264>
    4744:	90c00047 	ldb	r3,1(r18)
    4748:	94000044 	addi	r16,r18,1
    474c:	d8001d85 	stb	zero,118(sp)
    4750:	0009883a 	mov	r4,zero
    4754:	000f883a 	mov	r7,zero
    4758:	027fffc4 	movi	r9,-1
    475c:	0023883a 	mov	r17,zero
    4760:	0029883a 	mov	r20,zero
    4764:	01401604 	movi	r5,88
    4768:	01800244 	movi	r6,9
    476c:	03400a84 	movi	r13,42
    4770:	03001b04 	movi	r12,108
    4774:	84000044 	addi	r16,r16,1
    4778:	18bff804 	addi	r2,r3,-32
    477c:	28827336 	bltu	r5,r2,514c <___vfiprintf_internal_r+0xb54>
    4780:	100490ba 	slli	r2,r2,2
    4784:	02800034 	movhi	r10,0
    4788:	5291e604 	addi	r10,r10,18328
    478c:	1285883a 	add	r2,r2,r10
    4790:	10800017 	ldw	r2,0(r2)
    4794:	1000683a 	jmp	r2
    4798:	00004e80 	call	4e8 <compute_hash+0x4c>
    479c:	0000514c 	andi	zero,zero,325
    47a0:	0000514c 	andi	zero,zero,325
    47a4:	00004ea0 	cmpeqi	zero,zero,314
    47a8:	0000514c 	andi	zero,zero,325
    47ac:	0000514c 	andi	zero,zero,325
    47b0:	0000514c 	andi	zero,zero,325
    47b4:	0000514c 	andi	zero,zero,325
    47b8:	0000514c 	andi	zero,zero,325
    47bc:	0000514c 	andi	zero,zero,325
    47c0:	00005088 	cmpgei	zero,zero,322
    47c4:	000050a4 	muli	zero,zero,322
    47c8:	0000514c 	andi	zero,zero,325
    47cc:	0000498c 	andi	zero,zero,294
    47d0:	000050b4 	movhi	zero,322
    47d4:	0000514c 	andi	zero,zero,325
    47d8:	00004eac 	andhi	zero,zero,314
    47dc:	00004eb8 	rdprs	zero,zero,314
    47e0:	00004eb8 	rdprs	zero,zero,314
    47e4:	00004eb8 	rdprs	zero,zero,314
    47e8:	00004eb8 	rdprs	zero,zero,314
    47ec:	00004eb8 	rdprs	zero,zero,314
    47f0:	00004eb8 	rdprs	zero,zero,314
    47f4:	00004eb8 	rdprs	zero,zero,314
    47f8:	00004eb8 	rdprs	zero,zero,314
    47fc:	00004eb8 	rdprs	zero,zero,314
    4800:	0000514c 	andi	zero,zero,325
    4804:	0000514c 	andi	zero,zero,325
    4808:	0000514c 	andi	zero,zero,325
    480c:	0000514c 	andi	zero,zero,325
    4810:	0000514c 	andi	zero,zero,325
    4814:	0000514c 	andi	zero,zero,325
    4818:	0000514c 	andi	zero,zero,325
    481c:	0000514c 	andi	zero,zero,325
    4820:	0000514c 	andi	zero,zero,325
    4824:	0000514c 	andi	zero,zero,325
    4828:	00004ee4 	muli	zero,zero,315
    482c:	0000514c 	andi	zero,zero,325
    4830:	0000514c 	andi	zero,zero,325
    4834:	0000514c 	andi	zero,zero,325
    4838:	0000514c 	andi	zero,zero,325
    483c:	0000514c 	andi	zero,zero,325
    4840:	0000514c 	andi	zero,zero,325
    4844:	0000514c 	andi	zero,zero,325
    4848:	0000514c 	andi	zero,zero,325
    484c:	0000514c 	andi	zero,zero,325
    4850:	0000514c 	andi	zero,zero,325
    4854:	00004f1c 	xori	zero,zero,316
    4858:	0000514c 	andi	zero,zero,325
    485c:	0000514c 	andi	zero,zero,325
    4860:	0000514c 	andi	zero,zero,325
    4864:	0000514c 	andi	zero,zero,325
    4868:	0000514c 	andi	zero,zero,325
    486c:	00004f74 	movhi	zero,317
    4870:	0000514c 	andi	zero,zero,325
    4874:	0000514c 	andi	zero,zero,325
    4878:	00004fe4 	muli	zero,zero,319
    487c:	0000514c 	andi	zero,zero,325
    4880:	0000514c 	andi	zero,zero,325
    4884:	0000514c 	andi	zero,zero,325
    4888:	0000514c 	andi	zero,zero,325
    488c:	0000514c 	andi	zero,zero,325
    4890:	0000514c 	andi	zero,zero,325
    4894:	0000514c 	andi	zero,zero,325
    4898:	0000514c 	andi	zero,zero,325
    489c:	0000514c 	andi	zero,zero,325
    48a0:	0000514c 	andi	zero,zero,325
    48a4:	00004d90 	cmplti	zero,zero,310
    48a8:	00004dbc 	xorhi	zero,zero,310
    48ac:	0000514c 	andi	zero,zero,325
    48b0:	0000514c 	andi	zero,zero,325
    48b4:	0000514c 	andi	zero,zero,325
    48b8:	000050f4 	movhi	zero,323
    48bc:	00004dbc 	xorhi	zero,zero,310
    48c0:	0000514c 	andi	zero,zero,325
    48c4:	0000514c 	andi	zero,zero,325
    48c8:	00004c50 	cmplti	zero,zero,305
    48cc:	0000514c 	andi	zero,zero,325
    48d0:	00004c60 	cmpeqi	zero,zero,305
    48d4:	00004c9c 	xori	zero,zero,306
    48d8:	00004998 	cmpnei	zero,zero,294
    48dc:	00004c44 	movi	zero,305
    48e0:	0000514c 	andi	zero,zero,325
    48e4:	00005020 	cmpeqi	zero,zero,320
    48e8:	0000514c 	andi	zero,zero,325
    48ec:	00005078 	rdprs	zero,zero,321
    48f0:	0000514c 	andi	zero,zero,325
    48f4:	0000514c 	andi	zero,zero,325
    48f8:	00004d3c 	xorhi	zero,zero,308
    48fc:	42000204 	addi	r8,r8,8
    4900:	da802317 	ldw	r10,140(sp)
    4904:	5455883a 	add	r10,r10,r17
    4908:	da802315 	stw	r10,140(sp)
    490c:	003f8b06 	br	473c <___vfiprintf_internal_r+0x144>
    4910:	d9002017 	ldw	r4,128(sp)
    4914:	a00b883a 	mov	r5,r20
    4918:	0005b8c0 	call	5b8c <__swsetup_r>
    491c:	1003b11e 	bne	r2,zero,57e4 <___vfiprintf_internal_r+0x11ec>
    4920:	a080030b 	ldhu	r2,12(r20)
    4924:	00c00284 	movi	r3,10
    4928:	1080068c 	andi	r2,r2,26
    492c:	10ff541e 	bne	r2,r3,4680 <___vfiprintf_internal_r+0x88>
    4930:	a080038f 	ldh	r2,14(r20)
    4934:	103f5216 	blt	r2,zero,4680 <___vfiprintf_internal_r+0x88>
    4938:	d9c02217 	ldw	r7,136(sp)
    493c:	d9002017 	ldw	r4,128(sp)
    4940:	e00d883a 	mov	r6,fp
    4944:	a00b883a 	mov	r5,r20
    4948:	0005a700 	call	5a70 <__sbprintf>
    494c:	dfc03617 	ldw	ra,216(sp)
    4950:	df003517 	ldw	fp,212(sp)
    4954:	ddc03417 	ldw	r23,208(sp)
    4958:	dd803317 	ldw	r22,204(sp)
    495c:	dd403217 	ldw	r21,200(sp)
    4960:	dd003117 	ldw	r20,196(sp)
    4964:	dcc03017 	ldw	r19,192(sp)
    4968:	dc802f17 	ldw	r18,188(sp)
    496c:	dc402e17 	ldw	r17,184(sp)
    4970:	dc002d17 	ldw	r16,180(sp)
    4974:	dec03704 	addi	sp,sp,220
    4978:	f800283a 	ret
    497c:	00034f80 	call	34f8 <__sinit>
    4980:	003f2f06 	br	4640 <___vfiprintf_internal_r+0x48>
    4984:	0463c83a 	sub	r17,zero,r17
    4988:	d8802215 	stw	r2,136(sp)
    498c:	a5000114 	ori	r20,r20,4
    4990:	80c00007 	ldb	r3,0(r16)
    4994:	003f7706 	br	4774 <___vfiprintf_internal_r+0x17c>
    4998:	00800c04 	movi	r2,48
    499c:	da802217 	ldw	r10,136(sp)
    49a0:	d8801d05 	stb	r2,116(sp)
    49a4:	00801e04 	movi	r2,120
    49a8:	d8801d45 	stb	r2,117(sp)
    49ac:	d8001d85 	stb	zero,118(sp)
    49b0:	50c00104 	addi	r3,r10,4
    49b4:	54800017 	ldw	r18,0(r10)
    49b8:	0027883a 	mov	r19,zero
    49bc:	a0800094 	ori	r2,r20,2
    49c0:	48030b16 	blt	r9,zero,55f0 <___vfiprintf_internal_r+0xff8>
    49c4:	00bfdfc4 	movi	r2,-129
    49c8:	a096703a 	and	r11,r20,r2
    49cc:	d8c02215 	stw	r3,136(sp)
    49d0:	5d000094 	ori	r20,r11,2
    49d4:	90032b1e 	bne	r18,zero,5684 <___vfiprintf_internal_r+0x108c>
    49d8:	00800074 	movhi	r2,1
    49dc:	10a82204 	addi	r2,r2,-24440
    49e0:	d8802615 	stw	r2,152(sp)
    49e4:	0039883a 	mov	fp,zero
    49e8:	48017b1e 	bne	r9,zero,4fd8 <___vfiprintf_internal_r+0x9e0>
    49ec:	0013883a 	mov	r9,zero
    49f0:	0027883a 	mov	r19,zero
    49f4:	dd401a04 	addi	r21,sp,104
    49f8:	4825883a 	mov	r18,r9
    49fc:	4cc0010e 	bge	r9,r19,4a04 <___vfiprintf_internal_r+0x40c>
    4a00:	9825883a 	mov	r18,r19
    4a04:	e7003fcc 	andi	fp,fp,255
    4a08:	e700201c 	xori	fp,fp,128
    4a0c:	e73fe004 	addi	fp,fp,-128
    4a10:	e0000126 	beq	fp,zero,4a18 <___vfiprintf_internal_r+0x420>
    4a14:	94800044 	addi	r18,r18,1
    4a18:	a380008c 	andi	r14,r20,2
    4a1c:	70000126 	beq	r14,zero,4a24 <___vfiprintf_internal_r+0x42c>
    4a20:	94800084 	addi	r18,r18,2
    4a24:	a700210c 	andi	fp,r20,132
    4a28:	e001df1e 	bne	fp,zero,51a8 <___vfiprintf_internal_r+0xbb0>
    4a2c:	8c87c83a 	sub	r3,r17,r18
    4a30:	00c1dd0e 	bge	zero,r3,51a8 <___vfiprintf_internal_r+0xbb0>
    4a34:	01c00404 	movi	r7,16
    4a38:	d8801c17 	ldw	r2,112(sp)
    4a3c:	38c3ad0e 	bge	r7,r3,58f4 <___vfiprintf_internal_r+0x12fc>
    4a40:	02800074 	movhi	r10,1
    4a44:	52a82cc4 	addi	r10,r10,-24397
    4a48:	dc002915 	stw	r16,164(sp)
    4a4c:	d9801b17 	ldw	r6,108(sp)
    4a50:	da802415 	stw	r10,144(sp)
    4a54:	03c001c4 	movi	r15,7
    4a58:	da402515 	stw	r9,148(sp)
    4a5c:	db802815 	stw	r14,160(sp)
    4a60:	1821883a 	mov	r16,r3
    4a64:	00000506 	br	4a7c <___vfiprintf_internal_r+0x484>
    4a68:	31400084 	addi	r5,r6,2
    4a6c:	42000204 	addi	r8,r8,8
    4a70:	200d883a 	mov	r6,r4
    4a74:	843ffc04 	addi	r16,r16,-16
    4a78:	3c000d0e 	bge	r7,r16,4ab0 <___vfiprintf_internal_r+0x4b8>
    4a7c:	10800404 	addi	r2,r2,16
    4a80:	31000044 	addi	r4,r6,1
    4a84:	45800015 	stw	r22,0(r8)
    4a88:	41c00115 	stw	r7,4(r8)
    4a8c:	d8801c15 	stw	r2,112(sp)
    4a90:	d9001b15 	stw	r4,108(sp)
    4a94:	793ff40e 	bge	r15,r4,4a68 <___vfiprintf_internal_r+0x470>
    4a98:	1001b51e 	bne	r2,zero,5170 <___vfiprintf_internal_r+0xb78>
    4a9c:	843ffc04 	addi	r16,r16,-16
    4aa0:	000d883a 	mov	r6,zero
    4aa4:	01400044 	movi	r5,1
    4aa8:	d811883a 	mov	r8,sp
    4aac:	3c3ff316 	blt	r7,r16,4a7c <___vfiprintf_internal_r+0x484>
    4ab0:	8007883a 	mov	r3,r16
    4ab4:	da402517 	ldw	r9,148(sp)
    4ab8:	db802817 	ldw	r14,160(sp)
    4abc:	dc002917 	ldw	r16,164(sp)
    4ac0:	da802417 	ldw	r10,144(sp)
    4ac4:	1885883a 	add	r2,r3,r2
    4ac8:	40c00115 	stw	r3,4(r8)
    4acc:	42800015 	stw	r10,0(r8)
    4ad0:	d8801c15 	stw	r2,112(sp)
    4ad4:	d9401b15 	stw	r5,108(sp)
    4ad8:	00c001c4 	movi	r3,7
    4adc:	19426016 	blt	r3,r5,5460 <___vfiprintf_internal_r+0xe68>
    4ae0:	d8c01d87 	ldb	r3,118(sp)
    4ae4:	42000204 	addi	r8,r8,8
    4ae8:	29000044 	addi	r4,r5,1
    4aec:	1801b31e 	bne	r3,zero,51bc <___vfiprintf_internal_r+0xbc4>
    4af0:	7001c026 	beq	r14,zero,51f4 <___vfiprintf_internal_r+0xbfc>
    4af4:	d8c01d04 	addi	r3,sp,116
    4af8:	10800084 	addi	r2,r2,2
    4afc:	40c00015 	stw	r3,0(r8)
    4b00:	00c00084 	movi	r3,2
    4b04:	40c00115 	stw	r3,4(r8)
    4b08:	d8801c15 	stw	r2,112(sp)
    4b0c:	d9001b15 	stw	r4,108(sp)
    4b10:	00c001c4 	movi	r3,7
    4b14:	1902650e 	bge	r3,r4,54ac <___vfiprintf_internal_r+0xeb4>
    4b18:	10029a1e 	bne	r2,zero,5584 <___vfiprintf_internal_r+0xf8c>
    4b1c:	00c02004 	movi	r3,128
    4b20:	01000044 	movi	r4,1
    4b24:	000b883a 	mov	r5,zero
    4b28:	d811883a 	mov	r8,sp
    4b2c:	e0c1b31e 	bne	fp,r3,51fc <___vfiprintf_internal_r+0xc04>
    4b30:	8cb9c83a 	sub	fp,r17,r18
    4b34:	0701b10e 	bge	zero,fp,51fc <___vfiprintf_internal_r+0xc04>
    4b38:	01c00404 	movi	r7,16
    4b3c:	3f03890e 	bge	r7,fp,5964 <___vfiprintf_internal_r+0x136c>
    4b40:	00c00074 	movhi	r3,1
    4b44:	18e828c4 	addi	r3,r3,-24413
    4b48:	d8c02415 	stw	r3,144(sp)
    4b4c:	8007883a 	mov	r3,r16
    4b50:	034001c4 	movi	r13,7
    4b54:	e021883a 	mov	r16,fp
    4b58:	da402515 	stw	r9,148(sp)
    4b5c:	1839883a 	mov	fp,r3
    4b60:	00000506 	br	4b78 <___vfiprintf_internal_r+0x580>
    4b64:	29800084 	addi	r6,r5,2
    4b68:	42000204 	addi	r8,r8,8
    4b6c:	180b883a 	mov	r5,r3
    4b70:	843ffc04 	addi	r16,r16,-16
    4b74:	3c000d0e 	bge	r7,r16,4bac <___vfiprintf_internal_r+0x5b4>
    4b78:	10800404 	addi	r2,r2,16
    4b7c:	28c00044 	addi	r3,r5,1
    4b80:	45c00015 	stw	r23,0(r8)
    4b84:	41c00115 	stw	r7,4(r8)
    4b88:	d8801c15 	stw	r2,112(sp)
    4b8c:	d8c01b15 	stw	r3,108(sp)
    4b90:	68fff40e 	bge	r13,r3,4b64 <___vfiprintf_internal_r+0x56c>
    4b94:	1002241e 	bne	r2,zero,5428 <___vfiprintf_internal_r+0xe30>
    4b98:	843ffc04 	addi	r16,r16,-16
    4b9c:	01800044 	movi	r6,1
    4ba0:	000b883a 	mov	r5,zero
    4ba4:	d811883a 	mov	r8,sp
    4ba8:	3c3ff316 	blt	r7,r16,4b78 <___vfiprintf_internal_r+0x580>
    4bac:	da402517 	ldw	r9,148(sp)
    4bb0:	e007883a 	mov	r3,fp
    4bb4:	8039883a 	mov	fp,r16
    4bb8:	1821883a 	mov	r16,r3
    4bbc:	d8c02417 	ldw	r3,144(sp)
    4bc0:	1705883a 	add	r2,r2,fp
    4bc4:	47000115 	stw	fp,4(r8)
    4bc8:	40c00015 	stw	r3,0(r8)
    4bcc:	d8801c15 	stw	r2,112(sp)
    4bd0:	d9801b15 	stw	r6,108(sp)
    4bd4:	00c001c4 	movi	r3,7
    4bd8:	19827616 	blt	r3,r6,55b4 <___vfiprintf_internal_r+0xfbc>
    4bdc:	4cf9c83a 	sub	fp,r9,r19
    4be0:	42000204 	addi	r8,r8,8
    4be4:	31000044 	addi	r4,r6,1
    4be8:	300b883a 	mov	r5,r6
    4bec:	07018516 	blt	zero,fp,5204 <___vfiprintf_internal_r+0xc0c>
    4bf0:	9885883a 	add	r2,r19,r2
    4bf4:	45400015 	stw	r21,0(r8)
    4bf8:	44c00115 	stw	r19,4(r8)
    4bfc:	d8801c15 	stw	r2,112(sp)
    4c00:	d9001b15 	stw	r4,108(sp)
    4c04:	00c001c4 	movi	r3,7
    4c08:	1901dd0e 	bge	r3,r4,5380 <___vfiprintf_internal_r+0xd88>
    4c0c:	1002401e 	bne	r2,zero,5510 <___vfiprintf_internal_r+0xf18>
    4c10:	d8001b15 	stw	zero,108(sp)
    4c14:	a2c0010c 	andi	r11,r20,4
    4c18:	58000226 	beq	r11,zero,4c24 <___vfiprintf_internal_r+0x62c>
    4c1c:	8ca7c83a 	sub	r19,r17,r18
    4c20:	04c2f216 	blt	zero,r19,57ec <___vfiprintf_internal_r+0x11f4>
    4c24:	8c80010e 	bge	r17,r18,4c2c <___vfiprintf_internal_r+0x634>
    4c28:	9023883a 	mov	r17,r18
    4c2c:	da802317 	ldw	r10,140(sp)
    4c30:	5455883a 	add	r10,r10,r17
    4c34:	da802315 	stw	r10,140(sp)
    4c38:	d8001b15 	stw	zero,108(sp)
    4c3c:	d811883a 	mov	r8,sp
    4c40:	003ea206 	br	46cc <___vfiprintf_internal_r+0xd4>
    4c44:	a5000814 	ori	r20,r20,32
    4c48:	80c00007 	ldb	r3,0(r16)
    4c4c:	003ec906 	br	4774 <___vfiprintf_internal_r+0x17c>
    4c50:	80c00007 	ldb	r3,0(r16)
    4c54:	1b030926 	beq	r3,r12,587c <___vfiprintf_internal_r+0x1284>
    4c58:	a5000414 	ori	r20,r20,16
    4c5c:	003ec506 	br	4774 <___vfiprintf_internal_r+0x17c>
    4c60:	21003fcc 	andi	r4,r4,255
    4c64:	20035e1e 	bne	r4,zero,59e0 <___vfiprintf_internal_r+0x13e8>
    4c68:	a080080c 	andi	r2,r20,32
    4c6c:	1002a526 	beq	r2,zero,5704 <___vfiprintf_internal_r+0x110c>
    4c70:	da802217 	ldw	r10,136(sp)
    4c74:	50800017 	ldw	r2,0(r10)
    4c78:	da802317 	ldw	r10,140(sp)
    4c7c:	5007d7fa 	srai	r3,r10,31
    4c80:	da802217 	ldw	r10,136(sp)
    4c84:	10c00115 	stw	r3,4(r2)
    4c88:	52800104 	addi	r10,r10,4
    4c8c:	da802215 	stw	r10,136(sp)
    4c90:	da802317 	ldw	r10,140(sp)
    4c94:	12800015 	stw	r10,0(r2)
    4c98:	003e8c06 	br	46cc <___vfiprintf_internal_r+0xd4>
    4c9c:	21003fcc 	andi	r4,r4,255
    4ca0:	2003511e 	bne	r4,zero,59e8 <___vfiprintf_internal_r+0x13f0>
    4ca4:	a080080c 	andi	r2,r20,32
    4ca8:	1000a126 	beq	r2,zero,4f30 <___vfiprintf_internal_r+0x938>
    4cac:	da802217 	ldw	r10,136(sp)
    4cb0:	d8001d85 	stb	zero,118(sp)
    4cb4:	50800204 	addi	r2,r10,8
    4cb8:	54800017 	ldw	r18,0(r10)
    4cbc:	54c00117 	ldw	r19,4(r10)
    4cc0:	4802b416 	blt	r9,zero,5794 <___vfiprintf_internal_r+0x119c>
    4cc4:	013fdfc4 	movi	r4,-129
    4cc8:	94c6b03a 	or	r3,r18,r19
    4ccc:	d8802215 	stw	r2,136(sp)
    4cd0:	a128703a 	and	r20,r20,r4
    4cd4:	1800a226 	beq	r3,zero,4f60 <___vfiprintf_internal_r+0x968>
    4cd8:	0039883a 	mov	fp,zero
    4cdc:	dd401a04 	addi	r21,sp,104
    4ce0:	9006d0fa 	srli	r3,r18,3
    4ce4:	9808977a 	slli	r4,r19,29
    4ce8:	9826d0fa 	srli	r19,r19,3
    4cec:	948001cc 	andi	r18,r18,7
    4cf0:	90800c04 	addi	r2,r18,48
    4cf4:	ad7fffc4 	addi	r21,r21,-1
    4cf8:	20e4b03a 	or	r18,r4,r3
    4cfc:	a8800005 	stb	r2,0(r21)
    4d00:	94c6b03a 	or	r3,r18,r19
    4d04:	183ff61e 	bne	r3,zero,4ce0 <___vfiprintf_internal_r+0x6e8>
    4d08:	a0c0004c 	andi	r3,r20,1
    4d0c:	18005926 	beq	r3,zero,4e74 <___vfiprintf_internal_r+0x87c>
    4d10:	10803fcc 	andi	r2,r2,255
    4d14:	1080201c 	xori	r2,r2,128
    4d18:	10bfe004 	addi	r2,r2,-128
    4d1c:	00c00c04 	movi	r3,48
    4d20:	10c05426 	beq	r2,r3,4e74 <___vfiprintf_internal_r+0x87c>
    4d24:	da801e17 	ldw	r10,120(sp)
    4d28:	a8bfffc4 	addi	r2,r21,-1
    4d2c:	a8ffffc5 	stb	r3,-1(r21)
    4d30:	50a7c83a 	sub	r19,r10,r2
    4d34:	102b883a 	mov	r21,r2
    4d38:	003f2f06 	br	49f8 <___vfiprintf_internal_r+0x400>
    4d3c:	21003fcc 	andi	r4,r4,255
    4d40:	2003421e 	bne	r4,zero,5a4c <___vfiprintf_internal_r+0x1454>
    4d44:	00800074 	movhi	r2,1
    4d48:	10a82204 	addi	r2,r2,-24440
    4d4c:	d8802615 	stw	r2,152(sp)
    4d50:	a080080c 	andi	r2,r20,32
    4d54:	1000aa26 	beq	r2,zero,5000 <___vfiprintf_internal_r+0xa08>
    4d58:	da802217 	ldw	r10,136(sp)
    4d5c:	54800017 	ldw	r18,0(r10)
    4d60:	54c00117 	ldw	r19,4(r10)
    4d64:	52800204 	addi	r10,r10,8
    4d68:	da802215 	stw	r10,136(sp)
    4d6c:	a080004c 	andi	r2,r20,1
    4d70:	1001d226 	beq	r2,zero,54bc <___vfiprintf_internal_r+0xec4>
    4d74:	94c4b03a 	or	r2,r18,r19
    4d78:	1002351e 	bne	r2,zero,5650 <___vfiprintf_internal_r+0x1058>
    4d7c:	d8001d85 	stb	zero,118(sp)
    4d80:	48022216 	blt	r9,zero,560c <___vfiprintf_internal_r+0x1014>
    4d84:	00bfdfc4 	movi	r2,-129
    4d88:	a0a8703a 	and	r20,r20,r2
    4d8c:	003f1506 	br	49e4 <___vfiprintf_internal_r+0x3ec>
    4d90:	da802217 	ldw	r10,136(sp)
    4d94:	04800044 	movi	r18,1
    4d98:	d8001d85 	stb	zero,118(sp)
    4d9c:	50800017 	ldw	r2,0(r10)
    4da0:	52800104 	addi	r10,r10,4
    4da4:	da802215 	stw	r10,136(sp)
    4da8:	d8801005 	stb	r2,64(sp)
    4dac:	9027883a 	mov	r19,r18
    4db0:	dd401004 	addi	r21,sp,64
    4db4:	0013883a 	mov	r9,zero
    4db8:	003f1706 	br	4a18 <___vfiprintf_internal_r+0x420>
    4dbc:	21003fcc 	andi	r4,r4,255
    4dc0:	2003201e 	bne	r4,zero,5a44 <___vfiprintf_internal_r+0x144c>
    4dc4:	a080080c 	andi	r2,r20,32
    4dc8:	10004b26 	beq	r2,zero,4ef8 <___vfiprintf_internal_r+0x900>
    4dcc:	da802217 	ldw	r10,136(sp)
    4dd0:	50800117 	ldw	r2,4(r10)
    4dd4:	54800017 	ldw	r18,0(r10)
    4dd8:	52800204 	addi	r10,r10,8
    4ddc:	da802215 	stw	r10,136(sp)
    4de0:	1027883a 	mov	r19,r2
    4de4:	10022c16 	blt	r2,zero,5698 <___vfiprintf_internal_r+0x10a0>
    4de8:	df001d83 	ldbu	fp,118(sp)
    4dec:	48007216 	blt	r9,zero,4fb8 <___vfiprintf_internal_r+0x9c0>
    4df0:	00ffdfc4 	movi	r3,-129
    4df4:	94c4b03a 	or	r2,r18,r19
    4df8:	a0e8703a 	and	r20,r20,r3
    4dfc:	1000cc26 	beq	r2,zero,5130 <___vfiprintf_internal_r+0xb38>
    4e00:	98021026 	beq	r19,zero,5644 <___vfiprintf_internal_r+0x104c>
    4e04:	dc402415 	stw	r17,144(sp)
    4e08:	dc002515 	stw	r16,148(sp)
    4e0c:	9823883a 	mov	r17,r19
    4e10:	9021883a 	mov	r16,r18
    4e14:	dd401a04 	addi	r21,sp,104
    4e18:	4825883a 	mov	r18,r9
    4e1c:	4027883a 	mov	r19,r8
    4e20:	8009883a 	mov	r4,r16
    4e24:	880b883a 	mov	r5,r17
    4e28:	01800284 	movi	r6,10
    4e2c:	000f883a 	mov	r7,zero
    4e30:	00070840 	call	7084 <__umoddi3>
    4e34:	10800c04 	addi	r2,r2,48
    4e38:	ad7fffc4 	addi	r21,r21,-1
    4e3c:	8009883a 	mov	r4,r16
    4e40:	880b883a 	mov	r5,r17
    4e44:	a8800005 	stb	r2,0(r21)
    4e48:	01800284 	movi	r6,10
    4e4c:	000f883a 	mov	r7,zero
    4e50:	0006b0c0 	call	6b0c <__udivdi3>
    4e54:	1021883a 	mov	r16,r2
    4e58:	10c4b03a 	or	r2,r2,r3
    4e5c:	1823883a 	mov	r17,r3
    4e60:	103fef1e 	bne	r2,zero,4e20 <___vfiprintf_internal_r+0x828>
    4e64:	dc402417 	ldw	r17,144(sp)
    4e68:	dc002517 	ldw	r16,148(sp)
    4e6c:	9013883a 	mov	r9,r18
    4e70:	9811883a 	mov	r8,r19
    4e74:	da801e17 	ldw	r10,120(sp)
    4e78:	5567c83a 	sub	r19,r10,r21
    4e7c:	003ede06 	br	49f8 <___vfiprintf_internal_r+0x400>
    4e80:	38803fcc 	andi	r2,r7,255
    4e84:	1080201c 	xori	r2,r2,128
    4e88:	10bfe004 	addi	r2,r2,-128
    4e8c:	1002371e 	bne	r2,zero,576c <___vfiprintf_internal_r+0x1174>
    4e90:	01000044 	movi	r4,1
    4e94:	01c00804 	movi	r7,32
    4e98:	80c00007 	ldb	r3,0(r16)
    4e9c:	003e3506 	br	4774 <___vfiprintf_internal_r+0x17c>
    4ea0:	a5000054 	ori	r20,r20,1
    4ea4:	80c00007 	ldb	r3,0(r16)
    4ea8:	003e3206 	br	4774 <___vfiprintf_internal_r+0x17c>
    4eac:	a5002014 	ori	r20,r20,128
    4eb0:	80c00007 	ldb	r3,0(r16)
    4eb4:	003e2f06 	br	4774 <___vfiprintf_internal_r+0x17c>
    4eb8:	8015883a 	mov	r10,r16
    4ebc:	0023883a 	mov	r17,zero
    4ec0:	18bff404 	addi	r2,r3,-48
    4ec4:	50c00007 	ldb	r3,0(r10)
    4ec8:	8c4002a4 	muli	r17,r17,10
    4ecc:	84000044 	addi	r16,r16,1
    4ed0:	8015883a 	mov	r10,r16
    4ed4:	1463883a 	add	r17,r2,r17
    4ed8:	18bff404 	addi	r2,r3,-48
    4edc:	30bff92e 	bgeu	r6,r2,4ec4 <___vfiprintf_internal_r+0x8cc>
    4ee0:	003e2506 	br	4778 <___vfiprintf_internal_r+0x180>
    4ee4:	21003fcc 	andi	r4,r4,255
    4ee8:	2002d41e 	bne	r4,zero,5a3c <___vfiprintf_internal_r+0x1444>
    4eec:	a5000414 	ori	r20,r20,16
    4ef0:	a080080c 	andi	r2,r20,32
    4ef4:	103fb51e 	bne	r2,zero,4dcc <___vfiprintf_internal_r+0x7d4>
    4ef8:	a080040c 	andi	r2,r20,16
    4efc:	1001f826 	beq	r2,zero,56e0 <___vfiprintf_internal_r+0x10e8>
    4f00:	da802217 	ldw	r10,136(sp)
    4f04:	54800017 	ldw	r18,0(r10)
    4f08:	52800104 	addi	r10,r10,4
    4f0c:	da802215 	stw	r10,136(sp)
    4f10:	9027d7fa 	srai	r19,r18,31
    4f14:	9805883a 	mov	r2,r19
    4f18:	003fb206 	br	4de4 <___vfiprintf_internal_r+0x7ec>
    4f1c:	21003fcc 	andi	r4,r4,255
    4f20:	2002c41e 	bne	r4,zero,5a34 <___vfiprintf_internal_r+0x143c>
    4f24:	a5000414 	ori	r20,r20,16
    4f28:	a080080c 	andi	r2,r20,32
    4f2c:	103f5f1e 	bne	r2,zero,4cac <___vfiprintf_internal_r+0x6b4>
    4f30:	a080040c 	andi	r2,r20,16
    4f34:	10020f26 	beq	r2,zero,5774 <___vfiprintf_internal_r+0x117c>
    4f38:	da802217 	ldw	r10,136(sp)
    4f3c:	d8001d85 	stb	zero,118(sp)
    4f40:	0027883a 	mov	r19,zero
    4f44:	50800104 	addi	r2,r10,4
    4f48:	54800017 	ldw	r18,0(r10)
    4f4c:	48021116 	blt	r9,zero,5794 <___vfiprintf_internal_r+0x119c>
    4f50:	00ffdfc4 	movi	r3,-129
    4f54:	d8802215 	stw	r2,136(sp)
    4f58:	a0e8703a 	and	r20,r20,r3
    4f5c:	903f5e1e 	bne	r18,zero,4cd8 <___vfiprintf_internal_r+0x6e0>
    4f60:	0039883a 	mov	fp,zero
    4f64:	4802a626 	beq	r9,zero,5a00 <___vfiprintf_internal_r+0x1408>
    4f68:	0025883a 	mov	r18,zero
    4f6c:	0027883a 	mov	r19,zero
    4f70:	003f5a06 	br	4cdc <___vfiprintf_internal_r+0x6e4>
    4f74:	21003fcc 	andi	r4,r4,255
    4f78:	20029f1e 	bne	r4,zero,59f8 <___vfiprintf_internal_r+0x1400>
    4f7c:	a5000414 	ori	r20,r20,16
    4f80:	a080080c 	andi	r2,r20,32
    4f84:	10005e1e 	bne	r2,zero,5100 <___vfiprintf_internal_r+0xb08>
    4f88:	a080040c 	andi	r2,r20,16
    4f8c:	1001a21e 	bne	r2,zero,5618 <___vfiprintf_internal_r+0x1020>
    4f90:	a080100c 	andi	r2,r20,64
    4f94:	d8001d85 	stb	zero,118(sp)
    4f98:	da802217 	ldw	r10,136(sp)
    4f9c:	1002231e 	bne	r2,zero,582c <___vfiprintf_internal_r+0x1234>
    4fa0:	50800104 	addi	r2,r10,4
    4fa4:	54800017 	ldw	r18,0(r10)
    4fa8:	0027883a 	mov	r19,zero
    4fac:	4801a00e 	bge	r9,zero,5630 <___vfiprintf_internal_r+0x1038>
    4fb0:	d8802215 	stw	r2,136(sp)
    4fb4:	0039883a 	mov	fp,zero
    4fb8:	94c4b03a 	or	r2,r18,r19
    4fbc:	103f901e 	bne	r2,zero,4e00 <___vfiprintf_internal_r+0x808>
    4fc0:	00800044 	movi	r2,1
    4fc4:	10803fcc 	andi	r2,r2,255
    4fc8:	00c00044 	movi	r3,1
    4fcc:	10c05926 	beq	r2,r3,5134 <___vfiprintf_internal_r+0xb3c>
    4fd0:	00c00084 	movi	r3,2
    4fd4:	10ffe41e 	bne	r2,r3,4f68 <___vfiprintf_internal_r+0x970>
    4fd8:	0025883a 	mov	r18,zero
    4fdc:	0027883a 	mov	r19,zero
    4fe0:	00013d06 	br	54d8 <___vfiprintf_internal_r+0xee0>
    4fe4:	21003fcc 	andi	r4,r4,255
    4fe8:	2002811e 	bne	r4,zero,59f0 <___vfiprintf_internal_r+0x13f8>
    4fec:	00800074 	movhi	r2,1
    4ff0:	10a81d04 	addi	r2,r2,-24460
    4ff4:	d8802615 	stw	r2,152(sp)
    4ff8:	a080080c 	andi	r2,r20,32
    4ffc:	103f561e 	bne	r2,zero,4d58 <___vfiprintf_internal_r+0x760>
    5000:	a080040c 	andi	r2,r20,16
    5004:	1001d126 	beq	r2,zero,574c <___vfiprintf_internal_r+0x1154>
    5008:	da802217 	ldw	r10,136(sp)
    500c:	0027883a 	mov	r19,zero
    5010:	54800017 	ldw	r18,0(r10)
    5014:	52800104 	addi	r10,r10,4
    5018:	da802215 	stw	r10,136(sp)
    501c:	003f5306 	br	4d6c <___vfiprintf_internal_r+0x774>
    5020:	da802217 	ldw	r10,136(sp)
    5024:	d8001d85 	stb	zero,118(sp)
    5028:	55400017 	ldw	r21,0(r10)
    502c:	50c00104 	addi	r3,r10,4
    5030:	a8024226 	beq	r21,zero,593c <___vfiprintf_internal_r+0x1344>
    5034:	48021816 	blt	r9,zero,5898 <___vfiprintf_internal_r+0x12a0>
    5038:	480d883a 	mov	r6,r9
    503c:	000b883a 	mov	r5,zero
    5040:	a809883a 	mov	r4,r21
    5044:	d8c02a15 	stw	r3,168(sp)
    5048:	da002b15 	stw	r8,172(sp)
    504c:	da402c15 	stw	r9,176(sp)
    5050:	0003fc00 	call	3fc0 <memchr>
    5054:	d8c02a17 	ldw	r3,168(sp)
    5058:	da002b17 	ldw	r8,172(sp)
    505c:	da402c17 	ldw	r9,176(sp)
    5060:	10024826 	beq	r2,zero,5984 <___vfiprintf_internal_r+0x138c>
    5064:	1567c83a 	sub	r19,r2,r21
    5068:	df001d83 	ldbu	fp,118(sp)
    506c:	d8c02215 	stw	r3,136(sp)
    5070:	0013883a 	mov	r9,zero
    5074:	003e6006 	br	49f8 <___vfiprintf_internal_r+0x400>
    5078:	21003fcc 	andi	r4,r4,255
    507c:	203fc026 	beq	r4,zero,4f80 <___vfiprintf_internal_r+0x988>
    5080:	d9c01d85 	stb	r7,118(sp)
    5084:	003fbe06 	br	4f80 <___vfiprintf_internal_r+0x988>
    5088:	da802217 	ldw	r10,136(sp)
    508c:	54400017 	ldw	r17,0(r10)
    5090:	50800104 	addi	r2,r10,4
    5094:	883e3b16 	blt	r17,zero,4984 <___vfiprintf_internal_r+0x38c>
    5098:	d8802215 	stw	r2,136(sp)
    509c:	80c00007 	ldb	r3,0(r16)
    50a0:	003db406 	br	4774 <___vfiprintf_internal_r+0x17c>
    50a4:	01000044 	movi	r4,1
    50a8:	01c00ac4 	movi	r7,43
    50ac:	80c00007 	ldb	r3,0(r16)
    50b0:	003db006 	br	4774 <___vfiprintf_internal_r+0x17c>
    50b4:	80c00007 	ldb	r3,0(r16)
    50b8:	82800044 	addi	r10,r16,1
    50bc:	1b423c26 	beq	r3,r13,59b0 <___vfiprintf_internal_r+0x13b8>
    50c0:	18bff404 	addi	r2,r3,-48
    50c4:	0013883a 	mov	r9,zero
    50c8:	30822b36 	bltu	r6,r2,5978 <___vfiprintf_internal_r+0x1380>
    50cc:	50c00007 	ldb	r3,0(r10)
    50d0:	4a4002a4 	muli	r9,r9,10
    50d4:	54000044 	addi	r16,r10,1
    50d8:	8015883a 	mov	r10,r16
    50dc:	4893883a 	add	r9,r9,r2
    50e0:	18bff404 	addi	r2,r3,-48
    50e4:	30bff92e 	bgeu	r6,r2,50cc <___vfiprintf_internal_r+0xad4>
    50e8:	483da30e 	bge	r9,zero,4778 <___vfiprintf_internal_r+0x180>
    50ec:	027fffc4 	movi	r9,-1
    50f0:	003da106 	br	4778 <___vfiprintf_internal_r+0x180>
    50f4:	a5001014 	ori	r20,r20,64
    50f8:	80c00007 	ldb	r3,0(r16)
    50fc:	003d9d06 	br	4774 <___vfiprintf_internal_r+0x17c>
    5100:	da802217 	ldw	r10,136(sp)
    5104:	d8001d85 	stb	zero,118(sp)
    5108:	50c00204 	addi	r3,r10,8
    510c:	54800017 	ldw	r18,0(r10)
    5110:	54c00117 	ldw	r19,4(r10)
    5114:	4801ca16 	blt	r9,zero,5840 <___vfiprintf_internal_r+0x1248>
    5118:	013fdfc4 	movi	r4,-129
    511c:	94c4b03a 	or	r2,r18,r19
    5120:	d8c02215 	stw	r3,136(sp)
    5124:	a128703a 	and	r20,r20,r4
    5128:	0039883a 	mov	fp,zero
    512c:	103f341e 	bne	r2,zero,4e00 <___vfiprintf_internal_r+0x808>
    5130:	483e2e26 	beq	r9,zero,49ec <___vfiprintf_internal_r+0x3f4>
    5134:	0025883a 	mov	r18,zero
    5138:	94800c04 	addi	r18,r18,48
    513c:	dc8019c5 	stb	r18,103(sp)
    5140:	dcc02717 	ldw	r19,156(sp)
    5144:	dd4019c4 	addi	r21,sp,103
    5148:	003e2b06 	br	49f8 <___vfiprintf_internal_r+0x400>
    514c:	21003fcc 	andi	r4,r4,255
    5150:	2002361e 	bne	r4,zero,5a2c <___vfiprintf_internal_r+0x1434>
    5154:	1801c126 	beq	r3,zero,585c <___vfiprintf_internal_r+0x1264>
    5158:	04800044 	movi	r18,1
    515c:	d8c01005 	stb	r3,64(sp)
    5160:	d8001d85 	stb	zero,118(sp)
    5164:	9027883a 	mov	r19,r18
    5168:	dd401004 	addi	r21,sp,64
    516c:	003f1106 	br	4db4 <___vfiprintf_internal_r+0x7bc>
    5170:	d9402117 	ldw	r5,132(sp)
    5174:	d9002017 	ldw	r4,128(sp)
    5178:	d9801a04 	addi	r6,sp,104
    517c:	d9c02b15 	stw	r7,172(sp)
    5180:	dbc02a15 	stw	r15,168(sp)
    5184:	00044e40 	call	44e4 <__sprint_r.part.0>
    5188:	d9c02b17 	ldw	r7,172(sp)
    518c:	dbc02a17 	ldw	r15,168(sp)
    5190:	10006d1e 	bne	r2,zero,5348 <___vfiprintf_internal_r+0xd50>
    5194:	d9801b17 	ldw	r6,108(sp)
    5198:	d8801c17 	ldw	r2,112(sp)
    519c:	d811883a 	mov	r8,sp
    51a0:	31400044 	addi	r5,r6,1
    51a4:	003e3306 	br	4a74 <___vfiprintf_internal_r+0x47c>
    51a8:	d9401b17 	ldw	r5,108(sp)
    51ac:	d8801c17 	ldw	r2,112(sp)
    51b0:	29000044 	addi	r4,r5,1
    51b4:	d8c01d87 	ldb	r3,118(sp)
    51b8:	183e4d26 	beq	r3,zero,4af0 <___vfiprintf_internal_r+0x4f8>
    51bc:	00c00044 	movi	r3,1
    51c0:	d9401d84 	addi	r5,sp,118
    51c4:	10c5883a 	add	r2,r2,r3
    51c8:	41400015 	stw	r5,0(r8)
    51cc:	40c00115 	stw	r3,4(r8)
    51d0:	d8801c15 	stw	r2,112(sp)
    51d4:	d9001b15 	stw	r4,108(sp)
    51d8:	014001c4 	movi	r5,7
    51dc:	2900a90e 	bge	r5,r4,5484 <___vfiprintf_internal_r+0xe8c>
    51e0:	1000da1e 	bne	r2,zero,554c <___vfiprintf_internal_r+0xf54>
    51e4:	7000ab1e 	bne	r14,zero,5494 <___vfiprintf_internal_r+0xe9c>
    51e8:	000b883a 	mov	r5,zero
    51ec:	1809883a 	mov	r4,r3
    51f0:	d811883a 	mov	r8,sp
    51f4:	00c02004 	movi	r3,128
    51f8:	e0fe4d26 	beq	fp,r3,4b30 <___vfiprintf_internal_r+0x538>
    51fc:	4cf9c83a 	sub	fp,r9,r19
    5200:	073e7b0e 	bge	zero,fp,4bf0 <___vfiprintf_internal_r+0x5f8>
    5204:	01c00404 	movi	r7,16
    5208:	3f01900e 	bge	r7,fp,584c <___vfiprintf_internal_r+0x1254>
    520c:	00c00074 	movhi	r3,1
    5210:	18e828c4 	addi	r3,r3,-24413
    5214:	d8c02415 	stw	r3,144(sp)
    5218:	034001c4 	movi	r13,7
    521c:	00000506 	br	5234 <___vfiprintf_internal_r+0xc3c>
    5220:	29000084 	addi	r4,r5,2
    5224:	42000204 	addi	r8,r8,8
    5228:	180b883a 	mov	r5,r3
    522c:	e73ffc04 	addi	fp,fp,-16
    5230:	3f000d0e 	bge	r7,fp,5268 <___vfiprintf_internal_r+0xc70>
    5234:	10800404 	addi	r2,r2,16
    5238:	28c00044 	addi	r3,r5,1
    523c:	45c00015 	stw	r23,0(r8)
    5240:	41c00115 	stw	r7,4(r8)
    5244:	d8801c15 	stw	r2,112(sp)
    5248:	d8c01b15 	stw	r3,108(sp)
    524c:	68fff40e 	bge	r13,r3,5220 <___vfiprintf_internal_r+0xc28>
    5250:	1000101e 	bne	r2,zero,5294 <___vfiprintf_internal_r+0xc9c>
    5254:	e73ffc04 	addi	fp,fp,-16
    5258:	01000044 	movi	r4,1
    525c:	000b883a 	mov	r5,zero
    5260:	d811883a 	mov	r8,sp
    5264:	3f3ff316 	blt	r7,fp,5234 <___vfiprintf_internal_r+0xc3c>
    5268:	da802417 	ldw	r10,144(sp)
    526c:	1705883a 	add	r2,r2,fp
    5270:	47000115 	stw	fp,4(r8)
    5274:	42800015 	stw	r10,0(r8)
    5278:	d8801c15 	stw	r2,112(sp)
    527c:	d9001b15 	stw	r4,108(sp)
    5280:	00c001c4 	movi	r3,7
    5284:	19003616 	blt	r3,r4,5360 <___vfiprintf_internal_r+0xd68>
    5288:	42000204 	addi	r8,r8,8
    528c:	21000044 	addi	r4,r4,1
    5290:	003e5706 	br	4bf0 <___vfiprintf_internal_r+0x5f8>
    5294:	d9402117 	ldw	r5,132(sp)
    5298:	d9002017 	ldw	r4,128(sp)
    529c:	d9801a04 	addi	r6,sp,104
    52a0:	d9c02b15 	stw	r7,172(sp)
    52a4:	db402a15 	stw	r13,168(sp)
    52a8:	00044e40 	call	44e4 <__sprint_r.part.0>
    52ac:	d9c02b17 	ldw	r7,172(sp)
    52b0:	db402a17 	ldw	r13,168(sp)
    52b4:	1000241e 	bne	r2,zero,5348 <___vfiprintf_internal_r+0xd50>
    52b8:	d9401b17 	ldw	r5,108(sp)
    52bc:	d8801c17 	ldw	r2,112(sp)
    52c0:	d811883a 	mov	r8,sp
    52c4:	29000044 	addi	r4,r5,1
    52c8:	003fd806 	br	522c <___vfiprintf_internal_r+0xc34>
    52cc:	d9401b17 	ldw	r5,108(sp)
    52d0:	00c00074 	movhi	r3,1
    52d4:	18e82cc4 	addi	r3,r3,-24397
    52d8:	d8c02415 	stw	r3,144(sp)
    52dc:	29400044 	addi	r5,r5,1
    52e0:	d8c02417 	ldw	r3,144(sp)
    52e4:	14c5883a 	add	r2,r2,r19
    52e8:	44c00115 	stw	r19,4(r8)
    52ec:	40c00015 	stw	r3,0(r8)
    52f0:	d8801c15 	stw	r2,112(sp)
    52f4:	d9401b15 	stw	r5,108(sp)
    52f8:	00c001c4 	movi	r3,7
    52fc:	1940070e 	bge	r3,r5,531c <___vfiprintf_internal_r+0xd24>
    5300:	103e4826 	beq	r2,zero,4c24 <___vfiprintf_internal_r+0x62c>
    5304:	d9402117 	ldw	r5,132(sp)
    5308:	d9002017 	ldw	r4,128(sp)
    530c:	d9801a04 	addi	r6,sp,104
    5310:	00044e40 	call	44e4 <__sprint_r.part.0>
    5314:	10000c1e 	bne	r2,zero,5348 <___vfiprintf_internal_r+0xd50>
    5318:	d8801c17 	ldw	r2,112(sp)
    531c:	8c80010e 	bge	r17,r18,5324 <___vfiprintf_internal_r+0xd2c>
    5320:	9023883a 	mov	r17,r18
    5324:	da802317 	ldw	r10,140(sp)
    5328:	5455883a 	add	r10,r10,r17
    532c:	da802315 	stw	r10,140(sp)
    5330:	103e4126 	beq	r2,zero,4c38 <___vfiprintf_internal_r+0x640>
    5334:	d9402117 	ldw	r5,132(sp)
    5338:	d9002017 	ldw	r4,128(sp)
    533c:	d9801a04 	addi	r6,sp,104
    5340:	00044e40 	call	44e4 <__sprint_r.part.0>
    5344:	103e3c26 	beq	r2,zero,4c38 <___vfiprintf_internal_r+0x640>
    5348:	dd002117 	ldw	r20,132(sp)
    534c:	a080030b 	ldhu	r2,12(r20)
    5350:	1080100c 	andi	r2,r2,64
    5354:	1001231e 	bne	r2,zero,57e4 <___vfiprintf_internal_r+0x11ec>
    5358:	d8802317 	ldw	r2,140(sp)
    535c:	003d7b06 	br	494c <___vfiprintf_internal_r+0x354>
    5360:	1000991e 	bne	r2,zero,55c8 <___vfiprintf_internal_r+0xfd0>
    5364:	00c00044 	movi	r3,1
    5368:	9805883a 	mov	r2,r19
    536c:	dd400015 	stw	r21,0(sp)
    5370:	dcc00115 	stw	r19,4(sp)
    5374:	dcc01c15 	stw	r19,112(sp)
    5378:	d8c01b15 	stw	r3,108(sp)
    537c:	d811883a 	mov	r8,sp
    5380:	42000204 	addi	r8,r8,8
    5384:	a2c0010c 	andi	r11,r20,4
    5388:	583fe426 	beq	r11,zero,531c <___vfiprintf_internal_r+0xd24>
    538c:	8ca7c83a 	sub	r19,r17,r18
    5390:	04ffe20e 	bge	zero,r19,531c <___vfiprintf_internal_r+0xd24>
    5394:	01c00404 	movi	r7,16
    5398:	3cffcc0e 	bge	r7,r19,52cc <___vfiprintf_internal_r+0xcd4>
    539c:	02800074 	movhi	r10,1
    53a0:	52a82cc4 	addi	r10,r10,-24397
    53a4:	d9001b17 	ldw	r4,108(sp)
    53a8:	da802415 	stw	r10,144(sp)
    53ac:	382b883a 	mov	r21,r7
    53b0:	050001c4 	movi	r20,7
    53b4:	df002017 	ldw	fp,128(sp)
    53b8:	00000506 	br	53d0 <___vfiprintf_internal_r+0xdd8>
    53bc:	21400084 	addi	r5,r4,2
    53c0:	42000204 	addi	r8,r8,8
    53c4:	1809883a 	mov	r4,r3
    53c8:	9cfffc04 	addi	r19,r19,-16
    53cc:	acffc40e 	bge	r21,r19,52e0 <___vfiprintf_internal_r+0xce8>
    53d0:	10800404 	addi	r2,r2,16
    53d4:	20c00044 	addi	r3,r4,1
    53d8:	45800015 	stw	r22,0(r8)
    53dc:	45400115 	stw	r21,4(r8)
    53e0:	d8801c15 	stw	r2,112(sp)
    53e4:	d8c01b15 	stw	r3,108(sp)
    53e8:	a0fff40e 	bge	r20,r3,53bc <___vfiprintf_internal_r+0xdc4>
    53ec:	1000041e 	bne	r2,zero,5400 <___vfiprintf_internal_r+0xe08>
    53f0:	01400044 	movi	r5,1
    53f4:	0009883a 	mov	r4,zero
    53f8:	d811883a 	mov	r8,sp
    53fc:	003ff206 	br	53c8 <___vfiprintf_internal_r+0xdd0>
    5400:	d9402117 	ldw	r5,132(sp)
    5404:	d9801a04 	addi	r6,sp,104
    5408:	e009883a 	mov	r4,fp
    540c:	00044e40 	call	44e4 <__sprint_r.part.0>
    5410:	103fcd1e 	bne	r2,zero,5348 <___vfiprintf_internal_r+0xd50>
    5414:	d9001b17 	ldw	r4,108(sp)
    5418:	d8801c17 	ldw	r2,112(sp)
    541c:	d811883a 	mov	r8,sp
    5420:	21400044 	addi	r5,r4,1
    5424:	003fe806 	br	53c8 <___vfiprintf_internal_r+0xdd0>
    5428:	d9402117 	ldw	r5,132(sp)
    542c:	d9002017 	ldw	r4,128(sp)
    5430:	d9801a04 	addi	r6,sp,104
    5434:	d9c02b15 	stw	r7,172(sp)
    5438:	db402a15 	stw	r13,168(sp)
    543c:	00044e40 	call	44e4 <__sprint_r.part.0>
    5440:	d9c02b17 	ldw	r7,172(sp)
    5444:	db402a17 	ldw	r13,168(sp)
    5448:	103fbf1e 	bne	r2,zero,5348 <___vfiprintf_internal_r+0xd50>
    544c:	d9401b17 	ldw	r5,108(sp)
    5450:	d8801c17 	ldw	r2,112(sp)
    5454:	d811883a 	mov	r8,sp
    5458:	29800044 	addi	r6,r5,1
    545c:	003dc406 	br	4b70 <___vfiprintf_internal_r+0x578>
    5460:	1000d21e 	bne	r2,zero,57ac <___vfiprintf_internal_r+0x11b4>
    5464:	d8c01d87 	ldb	r3,118(sp)
    5468:	18009526 	beq	r3,zero,56c0 <___vfiprintf_internal_r+0x10c8>
    546c:	00800044 	movi	r2,1
    5470:	d8c01d84 	addi	r3,sp,118
    5474:	1009883a 	mov	r4,r2
    5478:	d8c00015 	stw	r3,0(sp)
    547c:	d8800115 	stw	r2,4(sp)
    5480:	d811883a 	mov	r8,sp
    5484:	200b883a 	mov	r5,r4
    5488:	42000204 	addi	r8,r8,8
    548c:	21000044 	addi	r4,r4,1
    5490:	003d9706 	br	4af0 <___vfiprintf_internal_r+0x4f8>
    5494:	d9001d04 	addi	r4,sp,116
    5498:	00800084 	movi	r2,2
    549c:	d9000015 	stw	r4,0(sp)
    54a0:	d8800115 	stw	r2,4(sp)
    54a4:	1809883a 	mov	r4,r3
    54a8:	d811883a 	mov	r8,sp
    54ac:	200b883a 	mov	r5,r4
    54b0:	42000204 	addi	r8,r8,8
    54b4:	21000044 	addi	r4,r4,1
    54b8:	003f4e06 	br	51f4 <___vfiprintf_internal_r+0xbfc>
    54bc:	d8001d85 	stb	zero,118(sp)
    54c0:	48005016 	blt	r9,zero,5604 <___vfiprintf_internal_r+0x100c>
    54c4:	00ffdfc4 	movi	r3,-129
    54c8:	94c4b03a 	or	r2,r18,r19
    54cc:	a0e8703a 	and	r20,r20,r3
    54d0:	103d4426 	beq	r2,zero,49e4 <___vfiprintf_internal_r+0x3ec>
    54d4:	0039883a 	mov	fp,zero
    54d8:	d9002617 	ldw	r4,152(sp)
    54dc:	dd401a04 	addi	r21,sp,104
    54e0:	908003cc 	andi	r2,r18,15
    54e4:	9806973a 	slli	r3,r19,28
    54e8:	2085883a 	add	r2,r4,r2
    54ec:	9024d13a 	srli	r18,r18,4
    54f0:	10800003 	ldbu	r2,0(r2)
    54f4:	9826d13a 	srli	r19,r19,4
    54f8:	ad7fffc4 	addi	r21,r21,-1
    54fc:	1ca4b03a 	or	r18,r3,r18
    5500:	a8800005 	stb	r2,0(r21)
    5504:	94c4b03a 	or	r2,r18,r19
    5508:	103ff51e 	bne	r2,zero,54e0 <___vfiprintf_internal_r+0xee8>
    550c:	003e5906 	br	4e74 <___vfiprintf_internal_r+0x87c>
    5510:	d9402117 	ldw	r5,132(sp)
    5514:	d9002017 	ldw	r4,128(sp)
    5518:	d9801a04 	addi	r6,sp,104
    551c:	00044e40 	call	44e4 <__sprint_r.part.0>
    5520:	103f891e 	bne	r2,zero,5348 <___vfiprintf_internal_r+0xd50>
    5524:	d8801c17 	ldw	r2,112(sp)
    5528:	d811883a 	mov	r8,sp
    552c:	003f9506 	br	5384 <___vfiprintf_internal_r+0xd8c>
    5530:	d9402117 	ldw	r5,132(sp)
    5534:	d9002017 	ldw	r4,128(sp)
    5538:	d9801a04 	addi	r6,sp,104
    553c:	00044e40 	call	44e4 <__sprint_r.part.0>
    5540:	103f811e 	bne	r2,zero,5348 <___vfiprintf_internal_r+0xd50>
    5544:	d811883a 	mov	r8,sp
    5548:	003ced06 	br	4900 <___vfiprintf_internal_r+0x308>
    554c:	d9402117 	ldw	r5,132(sp)
    5550:	d9002017 	ldw	r4,128(sp)
    5554:	d9801a04 	addi	r6,sp,104
    5558:	da402c15 	stw	r9,176(sp)
    555c:	db802a15 	stw	r14,168(sp)
    5560:	00044e40 	call	44e4 <__sprint_r.part.0>
    5564:	da402c17 	ldw	r9,176(sp)
    5568:	db802a17 	ldw	r14,168(sp)
    556c:	103f761e 	bne	r2,zero,5348 <___vfiprintf_internal_r+0xd50>
    5570:	d9401b17 	ldw	r5,108(sp)
    5574:	d8801c17 	ldw	r2,112(sp)
    5578:	d811883a 	mov	r8,sp
    557c:	29000044 	addi	r4,r5,1
    5580:	003d5b06 	br	4af0 <___vfiprintf_internal_r+0x4f8>
    5584:	d9402117 	ldw	r5,132(sp)
    5588:	d9002017 	ldw	r4,128(sp)
    558c:	d9801a04 	addi	r6,sp,104
    5590:	da402c15 	stw	r9,176(sp)
    5594:	00044e40 	call	44e4 <__sprint_r.part.0>
    5598:	da402c17 	ldw	r9,176(sp)
    559c:	103f6a1e 	bne	r2,zero,5348 <___vfiprintf_internal_r+0xd50>
    55a0:	d9401b17 	ldw	r5,108(sp)
    55a4:	d8801c17 	ldw	r2,112(sp)
    55a8:	d811883a 	mov	r8,sp
    55ac:	29000044 	addi	r4,r5,1
    55b0:	003f1006 	br	51f4 <___vfiprintf_internal_r+0xbfc>
    55b4:	1000c31e 	bne	r2,zero,58c4 <___vfiprintf_internal_r+0x12cc>
    55b8:	01000044 	movi	r4,1
    55bc:	000b883a 	mov	r5,zero
    55c0:	d811883a 	mov	r8,sp
    55c4:	003f0d06 	br	51fc <___vfiprintf_internal_r+0xc04>
    55c8:	d9402117 	ldw	r5,132(sp)
    55cc:	d9002017 	ldw	r4,128(sp)
    55d0:	d9801a04 	addi	r6,sp,104
    55d4:	00044e40 	call	44e4 <__sprint_r.part.0>
    55d8:	103f5b1e 	bne	r2,zero,5348 <___vfiprintf_internal_r+0xd50>
    55dc:	d9001b17 	ldw	r4,108(sp)
    55e0:	d8801c17 	ldw	r2,112(sp)
    55e4:	d811883a 	mov	r8,sp
    55e8:	21000044 	addi	r4,r4,1
    55ec:	003d8006 	br	4bf0 <___vfiprintf_internal_r+0x5f8>
    55f0:	01000074 	movhi	r4,1
    55f4:	21282204 	addi	r4,r4,-24440
    55f8:	d9002615 	stw	r4,152(sp)
    55fc:	d8c02215 	stw	r3,136(sp)
    5600:	1029883a 	mov	r20,r2
    5604:	94c4b03a 	or	r2,r18,r19
    5608:	103fb21e 	bne	r2,zero,54d4 <___vfiprintf_internal_r+0xedc>
    560c:	0039883a 	mov	fp,zero
    5610:	00800084 	movi	r2,2
    5614:	003e6b06 	br	4fc4 <___vfiprintf_internal_r+0x9cc>
    5618:	da802217 	ldw	r10,136(sp)
    561c:	d8001d85 	stb	zero,118(sp)
    5620:	0027883a 	mov	r19,zero
    5624:	50800104 	addi	r2,r10,4
    5628:	54800017 	ldw	r18,0(r10)
    562c:	483e6016 	blt	r9,zero,4fb0 <___vfiprintf_internal_r+0x9b8>
    5630:	00ffdfc4 	movi	r3,-129
    5634:	d8802215 	stw	r2,136(sp)
    5638:	a0e8703a 	and	r20,r20,r3
    563c:	0039883a 	mov	fp,zero
    5640:	903ebb26 	beq	r18,zero,5130 <___vfiprintf_internal_r+0xb38>
    5644:	00800244 	movi	r2,9
    5648:	14bdee36 	bltu	r2,r18,4e04 <___vfiprintf_internal_r+0x80c>
    564c:	003eba06 	br	5138 <___vfiprintf_internal_r+0xb40>
    5650:	00800c04 	movi	r2,48
    5654:	d8c01d45 	stb	r3,117(sp)
    5658:	d8801d05 	stb	r2,116(sp)
    565c:	d8001d85 	stb	zero,118(sp)
    5660:	a0c00094 	ori	r3,r20,2
    5664:	4800a916 	blt	r9,zero,590c <___vfiprintf_internal_r+0x1314>
    5668:	00bfdfc4 	movi	r2,-129
    566c:	a096703a 	and	r11,r20,r2
    5670:	5d000094 	ori	r20,r11,2
    5674:	0039883a 	mov	fp,zero
    5678:	003f9706 	br	54d8 <___vfiprintf_internal_r+0xee0>
    567c:	8025883a 	mov	r18,r16
    5680:	003c2e06 	br	473c <___vfiprintf_internal_r+0x144>
    5684:	00800074 	movhi	r2,1
    5688:	10a82204 	addi	r2,r2,-24440
    568c:	0039883a 	mov	fp,zero
    5690:	d8802615 	stw	r2,152(sp)
    5694:	003f9006 	br	54d8 <___vfiprintf_internal_r+0xee0>
    5698:	04a5c83a 	sub	r18,zero,r18
    569c:	07000b44 	movi	fp,45
    56a0:	9004c03a 	cmpne	r2,r18,zero
    56a4:	04e7c83a 	sub	r19,zero,r19
    56a8:	df001d85 	stb	fp,118(sp)
    56ac:	98a7c83a 	sub	r19,r19,r2
    56b0:	48009f16 	blt	r9,zero,5930 <___vfiprintf_internal_r+0x1338>
    56b4:	00bfdfc4 	movi	r2,-129
    56b8:	a0a8703a 	and	r20,r20,r2
    56bc:	003dd006 	br	4e00 <___vfiprintf_internal_r+0x808>
    56c0:	70004c26 	beq	r14,zero,57f4 <___vfiprintf_internal_r+0x11fc>
    56c4:	00800084 	movi	r2,2
    56c8:	d8c01d04 	addi	r3,sp,116
    56cc:	d8c00015 	stw	r3,0(sp)
    56d0:	d8800115 	stw	r2,4(sp)
    56d4:	01000044 	movi	r4,1
    56d8:	d811883a 	mov	r8,sp
    56dc:	003f7306 	br	54ac <___vfiprintf_internal_r+0xeb4>
    56e0:	a080100c 	andi	r2,r20,64
    56e4:	da802217 	ldw	r10,136(sp)
    56e8:	103e0626 	beq	r2,zero,4f04 <___vfiprintf_internal_r+0x90c>
    56ec:	5480000f 	ldh	r18,0(r10)
    56f0:	52800104 	addi	r10,r10,4
    56f4:	da802215 	stw	r10,136(sp)
    56f8:	9027d7fa 	srai	r19,r18,31
    56fc:	9805883a 	mov	r2,r19
    5700:	003db806 	br	4de4 <___vfiprintf_internal_r+0x7ec>
    5704:	a080040c 	andi	r2,r20,16
    5708:	1000091e 	bne	r2,zero,5730 <___vfiprintf_internal_r+0x1138>
    570c:	a2c0100c 	andi	r11,r20,64
    5710:	58000726 	beq	r11,zero,5730 <___vfiprintf_internal_r+0x1138>
    5714:	da802217 	ldw	r10,136(sp)
    5718:	50800017 	ldw	r2,0(r10)
    571c:	52800104 	addi	r10,r10,4
    5720:	da802215 	stw	r10,136(sp)
    5724:	da802317 	ldw	r10,140(sp)
    5728:	1280000d 	sth	r10,0(r2)
    572c:	003be706 	br	46cc <___vfiprintf_internal_r+0xd4>
    5730:	da802217 	ldw	r10,136(sp)
    5734:	50800017 	ldw	r2,0(r10)
    5738:	52800104 	addi	r10,r10,4
    573c:	da802215 	stw	r10,136(sp)
    5740:	da802317 	ldw	r10,140(sp)
    5744:	12800015 	stw	r10,0(r2)
    5748:	003be006 	br	46cc <___vfiprintf_internal_r+0xd4>
    574c:	a080100c 	andi	r2,r20,64
    5750:	da802217 	ldw	r10,136(sp)
    5754:	10003026 	beq	r2,zero,5818 <___vfiprintf_internal_r+0x1220>
    5758:	5480000b 	ldhu	r18,0(r10)
    575c:	52800104 	addi	r10,r10,4
    5760:	0027883a 	mov	r19,zero
    5764:	da802215 	stw	r10,136(sp)
    5768:	003d8006 	br	4d6c <___vfiprintf_internal_r+0x774>
    576c:	80c00007 	ldb	r3,0(r16)
    5770:	003c0006 	br	4774 <___vfiprintf_internal_r+0x17c>
    5774:	a080100c 	andi	r2,r20,64
    5778:	d8001d85 	stb	zero,118(sp)
    577c:	da802217 	ldw	r10,136(sp)
    5780:	1000201e 	bne	r2,zero,5804 <___vfiprintf_internal_r+0x120c>
    5784:	50800104 	addi	r2,r10,4
    5788:	54800017 	ldw	r18,0(r10)
    578c:	0027883a 	mov	r19,zero
    5790:	483def0e 	bge	r9,zero,4f50 <___vfiprintf_internal_r+0x958>
    5794:	94c6b03a 	or	r3,r18,r19
    5798:	d8802215 	stw	r2,136(sp)
    579c:	183d4e1e 	bne	r3,zero,4cd8 <___vfiprintf_internal_r+0x6e0>
    57a0:	0039883a 	mov	fp,zero
    57a4:	0005883a 	mov	r2,zero
    57a8:	003e0606 	br	4fc4 <___vfiprintf_internal_r+0x9cc>
    57ac:	d9402117 	ldw	r5,132(sp)
    57b0:	d9002017 	ldw	r4,128(sp)
    57b4:	d9801a04 	addi	r6,sp,104
    57b8:	da402c15 	stw	r9,176(sp)
    57bc:	db802a15 	stw	r14,168(sp)
    57c0:	00044e40 	call	44e4 <__sprint_r.part.0>
    57c4:	da402c17 	ldw	r9,176(sp)
    57c8:	db802a17 	ldw	r14,168(sp)
    57cc:	103ede1e 	bne	r2,zero,5348 <___vfiprintf_internal_r+0xd50>
    57d0:	d9401b17 	ldw	r5,108(sp)
    57d4:	d8801c17 	ldw	r2,112(sp)
    57d8:	d811883a 	mov	r8,sp
    57dc:	29000044 	addi	r4,r5,1
    57e0:	003e7406 	br	51b4 <___vfiprintf_internal_r+0xbbc>
    57e4:	00bfffc4 	movi	r2,-1
    57e8:	003c5806 	br	494c <___vfiprintf_internal_r+0x354>
    57ec:	d811883a 	mov	r8,sp
    57f0:	003ee806 	br	5394 <___vfiprintf_internal_r+0xd9c>
    57f4:	000b883a 	mov	r5,zero
    57f8:	01000044 	movi	r4,1
    57fc:	d811883a 	mov	r8,sp
    5800:	003e7c06 	br	51f4 <___vfiprintf_internal_r+0xbfc>
    5804:	50800104 	addi	r2,r10,4
    5808:	5480000b 	ldhu	r18,0(r10)
    580c:	0027883a 	mov	r19,zero
    5810:	483dcf0e 	bge	r9,zero,4f50 <___vfiprintf_internal_r+0x958>
    5814:	003fdf06 	br	5794 <___vfiprintf_internal_r+0x119c>
    5818:	54800017 	ldw	r18,0(r10)
    581c:	52800104 	addi	r10,r10,4
    5820:	0027883a 	mov	r19,zero
    5824:	da802215 	stw	r10,136(sp)
    5828:	003d5006 	br	4d6c <___vfiprintf_internal_r+0x774>
    582c:	50800104 	addi	r2,r10,4
    5830:	5480000b 	ldhu	r18,0(r10)
    5834:	0027883a 	mov	r19,zero
    5838:	483f7d0e 	bge	r9,zero,5630 <___vfiprintf_internal_r+0x1038>
    583c:	003ddc06 	br	4fb0 <___vfiprintf_internal_r+0x9b8>
    5840:	d8c02215 	stw	r3,136(sp)
    5844:	0039883a 	mov	fp,zero
    5848:	003ddb06 	br	4fb8 <___vfiprintf_internal_r+0x9c0>
    584c:	02800074 	movhi	r10,1
    5850:	52a828c4 	addi	r10,r10,-24413
    5854:	da802415 	stw	r10,144(sp)
